

Microchip MPLAB XC8 Assembler V2.10 build 88905656 
                                                                                               Fri Mar 06 09:44:01 2020

Microchip MPLAB XC8 C Compiler v2.10 (Free license) build 20190730164152 Og1 
     1                           	processor	16F877A
     2                           	opt	pw 120
     3                           	opt	flic
     4                           	psect	idataBANK0,global,class=CODE,delta=2
     5                           	psect	nvBANK0,global,class=BANK0,space=1,delta=1
     6                           	psect	cinit,global,class=CODE,merge=1,delta=2
     7                           	psect	bssBANK0,global,class=BANK0,space=1,delta=1
     8                           	psect	dataBANK0,global,class=BANK0,space=1,delta=1
     9                           	psect	inittext,global,class=CODE,delta=2
    10                           	psect	cstackCOMMON,global,class=COMMON,space=1,delta=1
    11                           	psect	cstackBANK0,global,class=BANK0,space=1,delta=1
    12                           	psect	maintext,global,class=CODE,split=1,delta=2
    13                           	psect	text1,local,class=CODE,merge=1,delta=2
    14                           	psect	text2,local,class=CODE,merge=1,delta=2
    15                           	psect	text3,local,class=CODE,merge=1,delta=2
    16                           	psect	text4,local,class=CODE,merge=1,delta=2
    17                           	psect	text5,local,class=CODE,merge=1,delta=2
    18                           	psect	text6,local,class=CODE,merge=1,delta=2
    19                           	psect	text7,local,class=CODE,merge=1,delta=2
    20                           	psect	text8,local,class=CODE,merge=1,delta=2
    21                           	psect	text9,local,class=CODE,merge=1,delta=2
    22                           	psect	text10,local,class=CODE,merge=1,delta=2
    23                           	psect	text11,local,class=CODE,merge=1,delta=2,group=1
    24                           	psect	text12,local,class=CODE,merge=1,delta=2,group=1
    25                           	psect	text13,local,class=CODE,merge=1,delta=2
    26                           	psect	text14,local,class=CODE,merge=1,delta=2,group=1
    27                           	psect	text15,local,class=CODE,merge=1,delta=2
    28                           	psect	text16,local,class=CODE,merge=1,delta=2
    29                           	psect	text17,local,class=CODE,merge=1,delta=2
    30                           	psect	text18,local,class=CODE,merge=1,delta=2
    31                           	psect	text19,local,class=CODE,merge=1,delta=2
    32                           	psect	text20,local,class=CODE,merge=1,delta=2
    33                           	psect	text21,local,class=CODE,merge=1,delta=2
    34                           	psect	text22,local,class=CODE,merge=1,delta=2
    35                           	psect	text23,local,class=CODE,merge=1,delta=2
    36                           	psect	text24,local,class=CODE,merge=1,delta=2
    37                           	psect	text25,local,class=CODE,merge=1,delta=2
    38                           	psect	text26,local,class=CODE,merge=1,delta=2
    39                           	dabs	1,0x7E,2
    40  0000                     
    41                           ; Version 2.10
    42                           ; Generated 31/07/2019 GMT
    43                           ; 
    44                           ; Copyright © 2019, Microchip Technology Inc. and its subsidiaries ("Microchip")
    45                           ; All rights reserved.
    46                           ; 
    47                           ; This software is developed by Microchip Technology Inc. and its subsidiaries ("Microch
      +                          ip").
    48                           ; 
    49                           ; Redistribution and use in source and binary forms, with or without modification, are
    50                           ; permitted provided that the following conditions are met:
    51                           ; 
    52                           ;     1. Redistributions of source code must retain the above copyright notice, this lis
      +                          t of
    53                           ;        conditions and the following disclaimer.
    54                           ; 
    55                           ;     2. Redistributions in binary form must reproduce the above copyright notice, this 
      +                          list
    56                           ;        of conditions and the following disclaimer in the documentation and/or other
    57                           ;        materials provided with the distribution.
    58                           ; 
    59                           ;     3. Microchip's name may not be used to endorse or promote products derived from th
      +                          is
    60                           ;        software without specific prior written permission.
    61                           ; 
    62                           ; THIS SOFTWARE IS PROVIDED BY MICROCHIP "AS IS" AND ANY EXPRESS OR IMPLIED WARRANTIES,
    63                           ; INCLUDING, BUT NOT LIMITED TO, THE IMPLIED WARRANTIES OF MERCHANTABILITY AND FITNESS F
      +                          OR
    64                           ; PURPOSE ARE DISCLAIMED.  IN NO EVENT SHALL MICROCHIP BE LIABLE FOR ANY DIRECT, INDIREC
      +                          T,
    65                           ; INCIDENTAL, SPECIAL, EXEMPLARY, OR CONSEQUENTIAL DAMAGES (INCLUDING BUT NOT LIMITED TO
    66                           ; PROCUREMENT OF SUBSTITUTE GOODS OR SERVICES; LOSS OF USE, DATA OR PROFITS; OR BUSINESS
    67                           ; INTERRUPTION) HOWSOEVER CAUSED AND ON ANY THEORY OF LIABILITY, WHETHER IN CONTRACT, ST
      +                          RICT
    68                           ; LIABILITY, OR TORT (INCLUDING NEGLIGENCE OR OTHERWISE) ARISING IN ANY WAY OUT OF THE U
      +                          SE OF
    69                           ; THIS SOFTWARE, EVEN IF ADVISED OF THE POSSIBILITY OF SUCH DAMAGE.
    70                           ; 
    71                           ; 
    72                           ; Code-generator required, PIC16F877A Definitions
    73                           ; 
    74                           ; SFR Addresses
    75  0000                     	;# 
    76  0001                     	;# 
    77  0002                     	;# 
    78  0003                     	;# 
    79  0004                     	;# 
    80  0005                     	;# 
    81  0006                     	;# 
    82  0007                     	;# 
    83  0008                     	;# 
    84  0009                     	;# 
    85  000A                     	;# 
    86  000B                     	;# 
    87  000C                     	;# 
    88  000D                     	;# 
    89  000E                     	;# 
    90  000E                     	;# 
    91  000F                     	;# 
    92  0010                     	;# 
    93  0011                     	;# 
    94  0012                     	;# 
    95  0013                     	;# 
    96  0014                     	;# 
    97  0015                     	;# 
    98  0015                     	;# 
    99  0016                     	;# 
   100  0017                     	;# 
   101  0018                     	;# 
   102  0019                     	;# 
   103  001A                     	;# 
   104  001B                     	;# 
   105  001B                     	;# 
   106  001C                     	;# 
   107  001D                     	;# 
   108  001E                     	;# 
   109  001F                     	;# 
   110  0081                     	;# 
   111  0085                     	;# 
   112  0086                     	;# 
   113  0087                     	;# 
   114  0088                     	;# 
   115  0089                     	;# 
   116  008C                     	;# 
   117  008D                     	;# 
   118  008E                     	;# 
   119  0091                     	;# 
   120  0092                     	;# 
   121  0093                     	;# 
   122  0094                     	;# 
   123  0098                     	;# 
   124  0099                     	;# 
   125  009C                     	;# 
   126  009D                     	;# 
   127  009E                     	;# 
   128  009F                     	;# 
   129  010C                     	;# 
   130  010D                     	;# 
   131  010E                     	;# 
   132  010F                     	;# 
   133  018C                     	;# 
   134  018D                     	;# 
   135  0000                     	;# 
   136  0001                     	;# 
   137  0002                     	;# 
   138  0003                     	;# 
   139  0004                     	;# 
   140  0005                     	;# 
   141  0006                     	;# 
   142  0007                     	;# 
   143  0008                     	;# 
   144  0009                     	;# 
   145  000A                     	;# 
   146  000B                     	;# 
   147  000C                     	;# 
   148  000D                     	;# 
   149  000E                     	;# 
   150  000E                     	;# 
   151  000F                     	;# 
   152  0010                     	;# 
   153  0011                     	;# 
   154  0012                     	;# 
   155  0013                     	;# 
   156  0014                     	;# 
   157  0015                     	;# 
   158  0015                     	;# 
   159  0016                     	;# 
   160  0017                     	;# 
   161  0018                     	;# 
   162  0019                     	;# 
   163  001A                     	;# 
   164  001B                     	;# 
   165  001B                     	;# 
   166  001C                     	;# 
   167  001D                     	;# 
   168  001E                     	;# 
   169  001F                     	;# 
   170  0081                     	;# 
   171  0085                     	;# 
   172  0086                     	;# 
   173  0087                     	;# 
   174  0088                     	;# 
   175  0089                     	;# 
   176  008C                     	;# 
   177  008D                     	;# 
   178  008E                     	;# 
   179  0091                     	;# 
   180  0092                     	;# 
   181  0093                     	;# 
   182  0094                     	;# 
   183  0098                     	;# 
   184  0099                     	;# 
   185  009C                     	;# 
   186  009D                     	;# 
   187  009E                     	;# 
   188  009F                     	;# 
   189  010C                     	;# 
   190  010D                     	;# 
   191  010E                     	;# 
   192  010F                     	;# 
   193  018C                     	;# 
   194  018D                     	;# 
   195                           
   196                           	psect	idataBANK0
   197  009A                     __pidataBANK0:	
   198                           
   199                           ;initializer for _numeros
   200  009A  343F               	retlw	63
   201  009B  3406               	retlw	6
   202  009C  345B               	retlw	91
   203  009D  344F               	retlw	79
   204  009E  3466               	retlw	102
   205  009F  346D               	retlw	109
   206  00A0  347D               	retlw	125
   207  00A1  3447               	retlw	71
   208  00A2  347F               	retlw	127
   209  00A3  3467               	retlw	103
   210                           
   211                           ;initializer for _contHora
   212  00A4  3402               	retlw	2
   213                           
   214                           ;initializer for _contDecHora
   215  00A5  3401               	retlw	1
   216                           
   217                           	psect	nvBANK0
   218  0043                     __pnvBANK0:	
   219  0043                     _contHoraMostrar:	
   220  0043                     	ds	1
   221  0044                     _contDecHoraMostrar:	
   222  0044                     	ds	1
   223  0006                     _PORTB	set	6
   224  0007                     _PORTC	set	7
   225  0005                     _PORTA	set	5
   226  0008                     _PORTD	set	8
   227  0006                     _PORTBbits	set	6
   228  0013                     _SSPBUF	set	19
   229  0014                     _SSPCON	set	20
   230  003C                     _RC4	set	60
   231  003B                     _RC3	set	59
   232  0087                     _TRISCbits	set	135
   233  009F                     _ADCON1bits	set	159
   234  0085                     _TRISA	set	133
   235  0088                     _TRISD	set	136
   236  0086                     _TRISB	set	134
   237  0091                     _SSPCON2bits	set	145
   238  0093                     _SSPADD	set	147
   239  0091                     _SSPCON2	set	145
   240  0094                     _SSPSTAT	set	148
   241  048E                     _ACKSTAT	set	1166
   242                           
   243                           ; #config settings
   244  0000                     
   245                           	psect	cinit
   246  07E3                     start_initialization:	
   247  07E3                     __initialization:	
   248                           
   249                           ; Initialize objects allocated to BANK0
   250  07E3  1383               	bcf	3,7	;select IRP bank0
   251  07E4  302C               	movlw	low (__pdataBANK0+12)
   252  07E5  00FD               	movwf	btemp+-1
   253  07E6  3000               	movlw	high __pidataBANK0
   254  07E7  00FE               	movwf	btemp
   255  07E8  309A               	movlw	low __pidataBANK0
   256  07E9  00FF               	movwf	btemp+1
   257  07EA  3020               	movlw	low __pdataBANK0
   258  07EB  0084               	movwf	4
   259  07EC  120A  118A  20C9  120A  118A  	fcall	init_ram0
   260                           
   261                           ; Clear objects allocated to BANK0
   262  07F1  01B8               	clrf	__pbssBANK0& (0+127)
   263  07F2  01B9               	clrf	(__pbssBANK0+1)& (0+127)
   264  07F3  01BA               	clrf	(__pbssBANK0+2)& (0+127)
   265  07F4  01BB               	clrf	(__pbssBANK0+3)& (0+127)
   266  07F5  01BC               	clrf	(__pbssBANK0+4)& (0+127)
   267  07F6  01BD               	clrf	(__pbssBANK0+5)& (0+127)
   268  07F7  01BE               	clrf	(__pbssBANK0+6)& (0+127)
   269  07F8  01BF               	clrf	(__pbssBANK0+7)& (0+127)
   270  07F9  01C0               	clrf	(__pbssBANK0+8)& (0+127)
   271  07FA  01C1               	clrf	(__pbssBANK0+9)& (0+127)
   272  07FB  01C2               	clrf	(__pbssBANK0+10)& (0+127)
   273  07FC                     end_of_initialization:	
   274                           ;End of C runtime variable initialization code
   275                           
   276  07FC                     __end_of__initialization:	
   277  07FC  0183               	clrf	3
   278  07FD  120A  118A  2E71   	ljmp	_main	;jump to C main() function
   279                           
   280                           	psect	bssBANK0
   281  0038                     __pbssBANK0:	
   282  0038                     _contadorBotonTemp:	
   283  0038                     	ds	2
   284  003A                     _AmPm:	
   285  003A                     	ds	1
   286  003B                     _formato:	
   287  003B                     	ds	1
   288  003C                     _contadorBotonSet:	
   289  003C                     	ds	1
   290  003D                     _numeroActual:	
   291  003D                     	ds	1
   292  003E                     _digitoActual:	
   293  003E                     	ds	1
   294  003F                     _contHoraAux:	
   295  003F                     	ds	1
   296  0040                     _contDecHoraAux:	
   297  0040                     	ds	1
   298  0041                     _contMin:	
   299  0041                     	ds	1
   300  0042                     _contDecMin:	
   301  0042                     	ds	1
   302                           
   303                           	psect	dataBANK0
   304  0020                     __pdataBANK0:	
   305  0020                     _numeros:	
   306  0020                     	ds	10
   307  002A                     _contHora:	
   308  002A                     	ds	1
   309  002B                     _contDecHora:	
   310  002B                     	ds	1
   311                           
   312                           	psect	inittext
   313  00C5                     init_fetch0:	
   314                           ;	Called with low address in FSR and high address in W
   315                           
   316  00C5  087E               	movf	btemp,w
   317  00C6  008A               	movwf	10
   318  00C7  087F               	movf	btemp+1,w
   319  00C8  0082               	movwf	2
   320  00C9                     init_ram0:	
   321                           ;Called with:
   322                           ;	high address of idata address in btemp 
   323                           ;	low address of idata address in btemp+1 
   324                           ;	low address of data in FSR
   325                           ;	high address + 1 of data in btemp-1
   326                           
   327  00C9  120A  118A  20C5  120A  118A  	fcall	init_fetch0
   328  00CE  0080               	movwf	0
   329  00CF  0A84               	incf	4,f
   330  00D0  0804               	movf	4,w
   331  00D1  067D               	xorwf	btemp+-1,w
   332  00D2  1903               	btfsc	3,2
   333  00D3  3400               	retlw	0
   334  00D4  0AFF               	incf	btemp+1,f
   335  00D5  1903               	btfsc	3,2
   336  00D6  0AFE               	incf	btemp,f
   337  00D7  28C9               	goto	init_ram0
   338                           
   339                           	psect	cstackCOMMON
   340  0070                     __pcstackCOMMON:	
   341  0070                     ?_setRtcHora:	
   342  0070                     ?_setRtcMinutos:	
   343                           ; 1 bytes @ 0x0
   344                           
   345  0070                     ?_i2c_iniciar:	
   346                           ; 1 bytes @ 0x0
   347                           
   348  0070                     ??_i2c_iniciar:	
   349                           ; 1 bytes @ 0x0
   350                           
   351  0070                     ?_i2c_espera:	
   352                           ; 1 bytes @ 0x0
   353                           
   354  0070                     ??_i2c_espera:	
   355                           ; 1 bytes @ 0x0
   356                           
   357  0070                     ?_i2c_inicia_com:	
   358                           ; 1 bytes @ 0x0
   359                           
   360  0070                     ??_i2c_inicia_com:	
   361                           ; 1 bytes @ 0x0
   362                           
   363  0070                     ?_i2c_reinicia_com:	
   364                           ; 1 bytes @ 0x0
   365                           
   366  0070                     ??_i2c_reinicia_com:	
   367                           ; 1 bytes @ 0x0
   368                           
   369  0070                     ?_i2c_detener:	
   370                           ; 1 bytes @ 0x0
   371                           
   372  0070                     ??_i2c_detener:	
   373                           ; 1 bytes @ 0x0
   374                           
   375  0070                     ?_i2c_envia_dato:	
   376                           ; 1 bytes @ 0x0
   377                           
   378  0070                     ??_i2c_envia_dato:	
   379                           ; 1 bytes @ 0x0
   380                           
   381  0070                     ?_i2c_recibe_dato:	
   382                           ; 1 bytes @ 0x0
   383                           
   384  0070                     ??_i2c_recibe_dato:	
   385                           ; 1 bytes @ 0x0
   386                           
   387  0070                     ?_leer_rtc:	
   388                           ; 1 bytes @ 0x0
   389                           
   390  0070                     ?_convertirDato:	
   391                           ; 1 bytes @ 0x0
   392                           
   393  0070                     ?_antiRebote:	
   394                           ; 1 bytes @ 0x0
   395                           
   396  0070                     ?_validaMinutos:	
   397                           ; 1 bytes @ 0x0
   398                           
   399  0070                     ??_validaMinutos:	
   400                           ; 1 bytes @ 0x0
   401                           
   402  0070                     ?_validaDecenasMinutos:	
   403                           ; 1 bytes @ 0x0
   404                           
   405  0070                     ??_validaDecenasMinutos:	
   406                           ; 1 bytes @ 0x0
   407                           
   408  0070                     ?_validaHoras:	
   409                           ; 1 bytes @ 0x0
   410                           
   411  0070                     ??_validaHoras:	
   412                           ; 1 bytes @ 0x0
   413                           
   414  0070                     ?_dameTemperatura:	
   415                           ; 1 bytes @ 0x0
   416                           
   417  0070                     ?_controlBotones:	
   418                           ; 1 bytes @ 0x0
   419                           
   420  0070                     ?_parpadearDigitos:	
   421                           ; 1 bytes @ 0x0
   422                           
   423  0070                     ??_parpadearDigitos:	
   424                           ; 1 bytes @ 0x0
   425                           
   426  0070                     ?_mostrarDigitos:	
   427                           ; 1 bytes @ 0x0
   428                           
   429  0070                     ??_mostrarDigitos:	
   430                           ; 1 bytes @ 0x0
   431                           
   432  0070                     ?_verificaAmPm:	
   433                           ; 1 bytes @ 0x0
   434                           
   435  0070                     ??_verificaAmPm:	
   436                           ; 1 bytes @ 0x0
   437                           
   438  0070                     ?_convertirFormato:	
   439                           ; 1 bytes @ 0x0
   440                           
   441  0070                     ?_dameHoraActual:	
   442                           ; 1 bytes @ 0x0
   443                           
   444  0070                     ?_main:	
   445                           ; 1 bytes @ 0x0
   446                           
   447  0070                     ?___bmul:	
   448                           ; 1 bytes @ 0x0
   449                           
   450  0070                     ?___awdiv:	
   451                           ; 1 bytes @ 0x0
   452                           
   453  0070                     i2c_envia_dato@dato:	
   454                           ; 2 bytes @ 0x0
   455                           
   456  0070                     ___bmul@multiplicand:	
   457                           ; 1 bytes @ 0x0
   458                           
   459  0070                     antiRebote@pin:	
   460                           ; 1 bytes @ 0x0
   461                           
   462  0070                     ___awdiv@divisor:	
   463                           ; 2 bytes @ 0x0
   464                           
   465                           
   466                           ; 2 bytes @ 0x0
   467  0070                     	ds	1
   468  0071                     ?_escribe_rtc:	
   469  0071                     ??___bmul:	
   470                           ; 1 bytes @ 0x1
   471                           
   472  0071                     i2c_recibe_dato@datoleido:	
   473                           ; 1 bytes @ 0x1
   474                           
   475  0071                     escribe_rtc@dato:	
   476                           ; 1 bytes @ 0x1
   477                           
   478                           
   479                           ; 1 bytes @ 0x1
   480  0071                     	ds	1
   481  0072                     ??_escribe_rtc:	
   482  0072                     ??_leer_rtc:	
   483                           ; 1 bytes @ 0x2
   484                           
   485  0072                     ??_antiRebote:	
   486                           ; 1 bytes @ 0x2
   487                           
   488  0072                     escribe_rtc@direccion:	
   489                           ; 1 bytes @ 0x2
   490                           
   491  0072                     parpadearDigitos@repeticiones:	
   492                           ; 1 bytes @ 0x2
   493                           
   494  0072                     ___bmul@product:	
   495                           ; 1 bytes @ 0x2
   496                           
   497  0072                     ___awdiv@dividend:	
   498                           ; 1 bytes @ 0x2
   499                           
   500                           
   501                           ; 2 bytes @ 0x2
   502  0072                     	ds	1
   503  0073                     ??_setRtcHora:	
   504  0073                     ??_setRtcMinutos:	
   505                           ; 1 bytes @ 0x3
   506                           
   507  0073                     leer_rtc@direccion:	
   508                           ; 1 bytes @ 0x3
   509                           
   510  0073                     ___bmul@multiplier:	
   511                           ; 1 bytes @ 0x3
   512                           
   513                           
   514                           ; 1 bytes @ 0x3
   515  0073                     	ds	1
   516  0074                     ??_convertirDato:	
   517  0074                     ??_convertirFormato:	
   518                           ; 1 bytes @ 0x4
   519                           
   520  0074                     ??___awdiv:	
   521                           ; 1 bytes @ 0x4
   522                           
   523  0074                     leer_rtc@dato:	
   524                           ; 1 bytes @ 0x4
   525                           
   526                           
   527                           ; 1 bytes @ 0x4
   528  0074                     	ds	1
   529  0075                     setRtcHora@horaRtc:	
   530  0075                     setRtcMinutos@minutosRtc:	
   531                           ; 1 bytes @ 0x5
   532                           
   533  0075                     ___awdiv@counter:	
   534                           ; 1 bytes @ 0x5
   535                           
   536                           
   537                           ; 1 bytes @ 0x5
   538  0075                     	ds	1
   539  0076                     ??_controlBotones:	
   540  0076                     convertirFormato@numeroEvaluar:	
   541                           ; 1 bytes @ 0x6
   542                           
   543  0076                     ___awdiv@sign:	
   544                           ; 1 bytes @ 0x6
   545                           
   546                           
   547                           ; 1 bytes @ 0x6
   548  0076                     	ds	1
   549  0077                     convertirDato@dato:	
   550  0077                     ___awdiv@quotient:	
   551                           ; 1 bytes @ 0x7
   552                           
   553                           
   554                           ; 2 bytes @ 0x7
   555  0077                     	ds	1
   556  0078                     convertirDato@datoR:	
   557                           
   558                           ; 1 bytes @ 0x8
   559  0078                     	ds	1
   560  0079                     ?___awmod:	
   561  0079                     ___awmod@divisor:	
   562                           ; 2 bytes @ 0x9
   563                           
   564                           
   565                           ; 2 bytes @ 0x9
   566  0079                     	ds	2
   567  007B                     ___awmod@dividend:	
   568                           
   569                           ; 2 bytes @ 0xB
   570  007B                     	ds	2
   571  007D                     ??___awmod:	
   572                           
   573                           ; 1 bytes @ 0xD
   574  007D                     	ds	1
   575                           
   576                           	psect	cstackBANK0
   577  002C                     __pcstackBANK0:	
   578  002C                     ___awmod@counter:	
   579                           
   580                           ; 1 bytes @ 0x0
   581  002C                     	ds	1
   582  002D                     ___awmod@sign:	
   583                           
   584                           ; 1 bytes @ 0x1
   585  002D                     	ds	1
   586  002E                     ??_dameTemperatura:	
   587  002E                     ??_dameHoraActual:	
   588                           ; 1 bytes @ 0x2
   589                           
   590                           
   591                           ; 1 bytes @ 0x2
   592  002E                     	ds	3
   593  0031                     dameHoraActual@auxMin:	
   594  0031                     dameTemperatura@repeticiones:	
   595                           ; 1 bytes @ 0x5
   596                           
   597                           
   598                           ; 2 bytes @ 0x5
   599  0031                     	ds	1
   600  0032                     dameHoraActual@auxHora:	
   601                           
   602                           ; 1 bytes @ 0x6
   603  0032                     	ds	1
   604  0033                     dameTemperatura@unidades:	
   605                           
   606                           ; 1 bytes @ 0x7
   607  0033                     	ds	1
   608  0034                     dameTemperatura@decenas:	
   609                           
   610                           ; 1 bytes @ 0x8
   611  0034                     	ds	1
   612  0035                     dameTemperatura@temperatura:	
   613                           
   614                           ; 1 bytes @ 0x9
   615  0035                     	ds	1
   616  0036                     ??_main:	
   617                           
   618                           ; 1 bytes @ 0xA
   619  0036                     	ds	2
   620                           
   621                           	psect	maintext
   622  0671                     __pmaintext:	
   623 ;;
   624 ;;Main: autosize = 0, tempsize = 2, incstack = 0, save=0
   625 ;;
   626 ;; *************** function _main *****************
   627 ;; Defined at:
   628 ;;		line 507 in file "main.c"
   629 ;; Parameters:    Size  Location     Type
   630 ;;		None
   631 ;; Auto vars:     Size  Location     Type
   632 ;;		None
   633 ;; Return value:  Size  Location     Type
   634 ;;                  1    wreg      void 
   635 ;; Registers used:
   636 ;;		wreg, fsr0l, fsr0h, status,2, status,0, btemp+1, pclath, cstack
   637 ;; Tracked objects:
   638 ;;		On entry : B00/0
   639 ;;		On exit  : 0/0
   640 ;;		Unchanged: 0/0
   641 ;; Data sizes:     COMMON   BANK0   BANK1   BANK3   BANK2
   642 ;;      Params:         0       0       0       0       0
   643 ;;      Locals:         0       0       0       0       0
   644 ;;      Temps:          0       2       0       0       0
   645 ;;      Totals:         0       2       0       0       0
   646 ;;Total ram usage:        2 bytes
   647 ;; Hardware stack levels required when called:    5
   648 ;; This function calls:
   649 ;;		_antiRebote
   650 ;;		_controlBotones
   651 ;;		_convertirFormato
   652 ;;		_dameHoraActual
   653 ;;		_dameTemperatura
   654 ;;		_i2c_iniciar
   655 ;;		_mostrarDigitos
   656 ;;		_parpadearDigitos
   657 ;;		_verificaAmPm
   658 ;; This function is called by:
   659 ;;		Startup code after reset
   660 ;; This function uses a non-reentrant model
   661 ;;
   662                           
   663                           
   664                           ;psect for function _main
   665  0671                     _main:	
   666  0671                     l2145:	
   667                           ;incstack = 0
   668                           ; Regs used in _main: [wreg-fsr0h+status,2+status,0+btemp+1+pclath+cstack]
   669                           
   670                           
   671                           ;main.c: 509:     TRISB = 1;
   672  0671  3001               	movlw	1
   673  0672  1683               	bsf	3,5	;RP0=1, select bank1
   674  0673  1303               	bcf	3,6	;RP1=0, select bank1
   675  0674  0086               	movwf	6	;volatile
   676  0675                     l2147:	
   677                           
   678                           ;main.c: 510:     TRISD = 0;
   679  0675  0188               	clrf	8	;volatile
   680  0676                     l2149:	
   681                           
   682                           ;main.c: 511:     TRISA = 0;
   683  0676  0185               	clrf	5	;volatile
   684  0677                     l2151:	
   685                           
   686                           ;main.c: 512:     ADCON1bits.PCFG = 0b0111;
   687  0677  081F               	movf	31,w	;volatile
   688  0678  39F0               	andlw	-16
   689  0679  3807               	iorlw	7
   690  067A  009F               	movwf	31	;volatile
   691  067B                     l2153:	
   692                           
   693                           ;main.c: 513:     TRISCbits.TRISC0 = 0;
   694  067B  1007               	bcf	7,0	;volatile
   695  067C                     l2155:	
   696                           
   697                           ;main.c: 514:     TRISCbits.TRISC1 = 0;
   698  067C  1087               	bcf	7,1	;volatile
   699  067D                     l2157:	
   700                           
   701                           ;main.c: 516:     i2c_iniciar();
   702  067D  120A  118A  20B3  120A  118A  	fcall	_i2c_iniciar
   703  0682                     l2159:	
   704                           
   705                           ;main.c: 518:     contDecHoraMostrar = &contDecHora;
   706  0682  302B               	movlw	(low (_contDecHora| 0))& (0+255)
   707  0683  1283               	bcf	3,5	;RP0=0, select bank0
   708  0684  1303               	bcf	3,6	;RP1=0, select bank0
   709  0685  00B6               	movwf	??_main
   710  0686  0836               	movf	??_main,w
   711  0687  00C4               	movwf	_contDecHoraMostrar
   712  0688                     l2161:	
   713                           
   714                           ;main.c: 519:     contHoraMostrar = &contHora;
   715  0688  302A               	movlw	(low (_contHora| 0))& (0+255)
   716  0689  00B6               	movwf	??_main
   717  068A  0836               	movf	??_main,w
   718  068B  00C3               	movwf	_contHoraMostrar
   719  068C                     l2163:	
   720                           
   721                           ;main.c: 521:     PORTA = 0;
   722  068C  0185               	clrf	5	;volatile
   723  068D                     l2165:	
   724                           
   725                           ;main.c: 522:     PORTB = 0;
   726  068D  0186               	clrf	6	;volatile
   727  068E                     l2167:	
   728                           
   729                           ;main.c: 523:     PORTC = 0;
   730  068E  0187               	clrf	7	;volatile
   731  068F                     l2169:	
   732                           
   733                           ;main.c: 524:     PORTD = 0;
   734  068F  0188               	clrf	8	;volatile
   735  0690                     l2171:	
   736                           
   737                           ;main.c: 531:         _delay((unsigned long)((3)*(4000000/4000.0)));
   738  0690  3004               	movlw	4
   739  0691  1283               	bcf	3,5	;RP0=0, select bank0
   740  0692  1303               	bcf	3,6	;RP1=0, select bank0
   741  0693  00B7               	movwf	??_main+1
   742  0694  30E3               	movlw	227
   743  0695  00B6               	movwf	??_main
   744  0696                     u1717:	
   745  0696  0BB6               	decfsz	??_main,f
   746  0697  2E96               	goto	u1717
   747  0698  0BB7               	decfsz	??_main+1,f
   748  0699  2E96               	goto	u1717
   749  069A  2E9B               	nop2
   750  069B                     l2173:	
   751                           
   752                           ;main.c: 533:         if (PORTBbits.RB1&&!contadorBotonSet)
   753  069B  1283               	bcf	3,5	;RP0=0, select bank0
   754  069C  1303               	bcf	3,6	;RP1=0, select bank0
   755  069D  1C86               	btfss	6,1	;volatile
   756  069E  2EA0               	goto	u1581
   757  069F  2EA1               	goto	u1580
   758  06A0                     u1581:	
   759  06A0  2EAC               	goto	l275
   760  06A1                     u1580:	
   761  06A1                     l2175:	
   762  06A1  083C               	movf	_contadorBotonSet,w
   763  06A2  1D03               	btfss	3,2
   764  06A3  2EA5               	goto	u1591
   765  06A4  2EA6               	goto	u1590
   766  06A5                     u1591:	
   767  06A5  2EAC               	goto	l275
   768  06A6                     u1590:	
   769  06A6                     l2177:	
   770                           
   771                           ;main.c: 534:         {;main.c: 535:             dameTemperatura();
   772  06A6  120A  118A  25BD  120A  118A  	fcall	_dameTemperatura
   773                           
   774                           ;main.c: 537:         } else if (PORTBbits.RB2&&!contadorBotonSet)
   775  06AB  2EE2               	goto	l2197
   776  06AC                     l275:	
   777  06AC  1D06               	btfss	6,2	;volatile
   778  06AD  2EAF               	goto	u1601
   779  06AE  2EB0               	goto	u1600
   780  06AF                     u1601:	
   781  06AF  2ECC               	goto	l277
   782  06B0                     u1600:	
   783  06B0                     l2179:	
   784  06B0  083C               	movf	_contadorBotonSet,w
   785  06B1  1D03               	btfss	3,2
   786  06B2  2EB4               	goto	u1611
   787  06B3  2EB5               	goto	u1610
   788  06B4                     u1611:	
   789  06B4  2ECC               	goto	l277
   790  06B5                     u1610:	
   791  06B5                     l2181:	
   792                           
   793                           ;main.c: 538:         {;main.c: 539:             antiRebote(2);
   794  06B5  3002               	movlw	2
   795  06B6  00F0               	movwf	antiRebote@pin
   796  06B7  3000               	movlw	0
   797  06B8  00F1               	movwf	antiRebote@pin+1
   798  06B9  120A  118A  221B  120A  118A  	fcall	_antiRebote
   799  06BE                     l2183:	
   800                           
   801                           ;main.c: 541:             if (contadorBotonTemp != 2) {
   802  06BE  3002               	movlw	2
   803  06BF  1283               	bcf	3,5	;RP0=0, select bank0
   804  06C0  1303               	bcf	3,6	;RP1=0, select bank0
   805  06C1  0638               	xorwf	_contadorBotonTemp,w
   806  06C2  0439               	iorwf	_contadorBotonTemp+1,w
   807  06C3  1903               	btfsc	3,2
   808  06C4  2EC6               	goto	u1621
   809  06C5  2EC7               	goto	u1620
   810  06C6                     u1621:	
   811  06C6  2EC9               	goto	l2187
   812  06C7                     u1620:	
   813  06C7                     l2185:	
   814                           
   815                           ;main.c: 542:                 formato = ~formato;
   816  06C7  09BB               	comf	_formato,f
   817                           
   818                           ;main.c: 543:             } else {
   819  06C8  2EE2               	goto	l2197
   820  06C9                     l2187:	
   821                           
   822                           ;main.c: 544:                 contadorBotonTemp = 0;
   823  06C9  01B8               	clrf	_contadorBotonTemp
   824  06CA  01B9               	clrf	_contadorBotonTemp+1
   825  06CB  2EE2               	goto	l2197
   826  06CC                     l277:	
   827  06CC  1806               	btfsc	6,0	;volatile
   828  06CD  2ECF               	goto	u1631
   829  06CE  2ED0               	goto	u1630
   830  06CF                     u1631:	
   831  06CF  2EDD               	goto	l2195
   832  06D0                     u1630:	
   833  06D0                     l2189:	
   834  06D0  1886               	btfsc	6,1	;volatile
   835  06D1  2ED3               	goto	u1641
   836  06D2  2ED4               	goto	u1640
   837  06D3                     u1641:	
   838  06D3  2ED8               	goto	l2193
   839  06D4                     u1640:	
   840  06D4                     l2191:	
   841  06D4  1D06               	btfss	6,2	;volatile
   842  06D5  2ED7               	goto	u1651
   843  06D6  2ED8               	goto	u1650
   844  06D7                     u1651:	
   845  06D7  2EE2               	goto	l2197
   846  06D8                     u1650:	
   847  06D8                     l2193:	
   848  06D8  083C               	movf	_contadorBotonSet,w
   849  06D9  1903               	btfsc	3,2
   850  06DA  2EDC               	goto	u1661
   851  06DB  2EDD               	goto	u1660
   852  06DC                     u1661:	
   853  06DC  2EE2               	goto	l2197
   854  06DD                     u1660:	
   855  06DD                     l2195:	
   856                           
   857                           ;main.c: 547:             controlBotones();
   858  06DD  120A  118A  2726  120A  118A  	fcall	_controlBotones
   859  06E2                     l2197:	
   860                           
   861                           ;main.c: 550:         if (!formato) {
   862  06E2  1283               	bcf	3,5	;RP0=0, select bank0
   863  06E3  1303               	bcf	3,6	;RP1=0, select bank0
   864  06E4  083B               	movf	_formato,w
   865  06E5  1D03               	btfss	3,2
   866  06E6  2EE8               	goto	u1671
   867  06E7  2EE9               	goto	u1670
   868  06E8                     u1671:	
   869  06E8  2EF3               	goto	l2203
   870  06E9                     u1670:	
   871  06E9                     l2199:	
   872                           
   873                           ;main.c: 551:             contDecHoraMostrar = &contDecHora;
   874  06E9  302B               	movlw	(low (_contDecHora| 0))& (0+255)
   875  06EA  00B6               	movwf	??_main
   876  06EB  0836               	movf	??_main,w
   877  06EC  00C4               	movwf	_contDecHoraMostrar
   878                           
   879                           ;main.c: 552:             contHoraMostrar = &contHora;
   880  06ED  302A               	movlw	(low (_contHora| 0))& (0+255)
   881  06EE  00B6               	movwf	??_main
   882  06EF  0836               	movf	??_main,w
   883  06F0  00C3               	movwf	_contHoraMostrar
   884  06F1                     l2201:	
   885                           
   886                           ;main.c: 553:             PORTC = 0;
   887  06F1  0187               	clrf	7	;volatile
   888                           
   889                           ;main.c: 554:         } else {
   890  06F2  2EFD               	goto	l2207
   891  06F3                     l2203:	
   892                           
   893                           ;main.c: 555:             verificaAmPm();
   894  06F3  120A  118A  21C4  120A  118A  	fcall	_verificaAmPm
   895  06F8                     l2205:	
   896                           
   897                           ;main.c: 556:             convertirFormato();
   898  06F8  120A  118A  250F  120A  118A  	fcall	_convertirFormato
   899  06FD                     l2207:	
   900                           
   901                           ;main.c: 559:         if (!contadorBotonSet) {
   902  06FD  1283               	bcf	3,5	;RP0=0, select bank0
   903  06FE  1303               	bcf	3,6	;RP1=0, select bank0
   904  06FF  083C               	movf	_contadorBotonSet,w
   905  0700  1D03               	btfss	3,2
   906  0701  2F03               	goto	u1681
   907  0702  2F04               	goto	u1680
   908  0703                     u1681:	
   909  0703  2F1D               	goto	l2219
   910  0704                     u1680:	
   911  0704                     l2209:	
   912                           
   913                           ;main.c: 561:             if (contadorBotonTemp == 1 && (numeroActual != contMin))
   914  0704  0338               	decf	_contadorBotonTemp,w
   915  0705  0439               	iorwf	_contadorBotonTemp+1,w
   916  0706  1D03               	btfss	3,2
   917  0707  2F09               	goto	u1691
   918  0708  2F0A               	goto	u1690
   919  0709                     u1691:	
   920  0709  2F12               	goto	l2215
   921  070A                     u1690:	
   922  070A                     l2211:	
   923  070A  083D               	movf	_numeroActual,w
   924  070B  0641               	xorwf	_contMin,w
   925  070C  1903               	skipnz
   926  070D  2F0F               	goto	u1701
   927  070E  2F10               	goto	u1700
   928  070F                     u1701:	
   929  070F  2F12               	goto	l2215
   930  0710                     u1700:	
   931  0710                     l2213:	
   932                           
   933                           ;main.c: 562:                 contadorBotonTemp = 0;
   934  0710  01B8               	clrf	_contadorBotonTemp
   935  0711  01B9               	clrf	_contadorBotonTemp+1
   936  0712                     l2215:	
   937                           
   938                           ;main.c: 564:             dameHoraActual();
   939  0712  120A  118A  247C  120A  118A  	fcall	_dameHoraActual
   940  0717                     l2217:	
   941                           
   942                           ;main.c: 565:             mostrarDigitos();
   943  0717  120A  118A  22B2  120A  118A  	fcall	_mostrarDigitos
   944                           
   945                           ;main.c: 566:         } else {
   946  071C  2E90               	goto	l2171
   947  071D                     l2219:	
   948                           
   949                           ;main.c: 567:             parpadearDigitos();
   950  071D  120A  118A  23F7  120A  118A  	fcall	_parpadearDigitos
   951  0722  2E90               	goto	l2171
   952  0723  120A  118A  2800   	ljmp	start
   953  0726                     __end_of_main:	
   954                           
   955                           	psect	text1
   956  01C4                     __ptext1:	
   957 ;; *************** function _verificaAmPm *****************
   958 ;; Defined at:
   959 ;;		line 320 in file "main.c"
   960 ;; Parameters:    Size  Location     Type
   961 ;;		None
   962 ;; Auto vars:     Size  Location     Type
   963 ;;		None
   964 ;; Return value:  Size  Location     Type
   965 ;;                  1    wreg      void 
   966 ;; Registers used:
   967 ;;		wreg, status,2, status,0
   968 ;; Tracked objects:
   969 ;;		On entry : 0/0
   970 ;;		On exit  : 0/0
   971 ;;		Unchanged: 0/0
   972 ;; Data sizes:     COMMON   BANK0   BANK1   BANK3   BANK2
   973 ;;      Params:         0       0       0       0       0
   974 ;;      Locals:         0       0       0       0       0
   975 ;;      Temps:          0       0       0       0       0
   976 ;;      Totals:         0       0       0       0       0
   977 ;;Total ram usage:        0 bytes
   978 ;; Hardware stack levels used:    1
   979 ;; This function calls:
   980 ;;		Nothing
   981 ;; This function is called by:
   982 ;;		_main
   983 ;; This function uses a non-reentrant model
   984 ;;
   985                           
   986                           
   987                           ;psect for function _verificaAmPm
   988  01C4                     _verificaAmPm:	
   989  01C4                     l2025:	
   990                           ;incstack = 0
   991                           ; Regs used in _verificaAmPm: [wreg+status,2+status,0]
   992                           
   993                           
   994                           ;main.c: 322:     if (((contHora >= 0 && contHora <= 9)&&!contDecHora) || ((contHora >= 
      +                          0 && contHora <= 1) && contDecHora == 1))
   995  01C4  1283               	bcf	3,5	;RP0=0, select bank0
   996  01C5  1303               	bcf	3,6	;RP1=0, select bank0
   997  01C6  1BAA               	btfsc	_contHora,7
   998  01C7  29C9               	goto	u1521
   999  01C8  29CA               	goto	u1520
  1000  01C9                     u1521:	
  1001  01C9  29D6               	goto	l226
  1002  01CA                     u1520:	
  1003  01CA                     l2027:	
  1004  01CA  082A               	movf	_contHora,w
  1005  01CB  3A80               	xorlw	128
  1006  01CC  3E76               	addlw	-138
  1007  01CD  1803               	skipnc
  1008  01CE  29D0               	goto	u1531
  1009  01CF  29D1               	goto	u1530
  1010  01D0                     u1531:	
  1011  01D0  29D6               	goto	l226
  1012  01D1                     u1530:	
  1013  01D1                     l2029:	
  1014  01D1  082B               	movf	_contDecHora,w
  1015  01D2  1903               	btfsc	3,2
  1016  01D3  29D5               	goto	u1541
  1017  01D4  29D6               	goto	u1540
  1018  01D5                     u1541:	
  1019  01D5  29E6               	goto	l2035
  1020  01D6                     u1540:	
  1021  01D6                     l226:	
  1022  01D6  1BAA               	btfsc	_contHora,7
  1023  01D7  29D9               	goto	u1551
  1024  01D8  29DA               	goto	u1550
  1025  01D9                     u1551:	
  1026  01D9  29EA               	goto	l222
  1027  01DA                     u1550:	
  1028  01DA                     l2031:	
  1029  01DA  082A               	movf	_contHora,w
  1030  01DB  3A80               	xorlw	128
  1031  01DC  3E7E               	addlw	-130
  1032  01DD  1803               	skipnc
  1033  01DE  29E0               	goto	u1561
  1034  01DF  29E1               	goto	u1560
  1035  01E0                     u1561:	
  1036  01E0  29EA               	goto	l222
  1037  01E1                     u1560:	
  1038  01E1                     l2033:	
  1039  01E1  032B               	decf	_contDecHora,w
  1040  01E2  1D03               	btfss	3,2
  1041  01E3  29E5               	goto	u1571
  1042  01E4  29E6               	goto	u1570
  1043  01E5                     u1571:	
  1044  01E5  29EA               	goto	l222
  1045  01E6                     u1570:	
  1046  01E6                     l2035:	
  1047                           
  1048                           ;main.c: 323:     {;main.c: 324:         AmPm = 0;
  1049  01E6  01BA               	clrf	_AmPm
  1050  01E7                     l2037:	
  1051                           
  1052                           ;main.c: 325:         PORTC = 1;
  1053  01E7  3001               	movlw	1
  1054  01E8  0087               	movwf	7	;volatile
  1055                           
  1056                           ;main.c: 326:     } else
  1057  01E9  29EE               	goto	l228
  1058  01EA                     l222:	
  1059                           
  1060                           ;main.c: 327:     {;main.c: 328:         AmPm = 1;
  1061  01EA  01BA               	clrf	_AmPm
  1062  01EB  0ABA               	incf	_AmPm,f
  1063  01EC                     l2039:	
  1064                           
  1065                           ;main.c: 329:         PORTC = 2;
  1066  01EC  3002               	movlw	2
  1067  01ED  0087               	movwf	7	;volatile
  1068  01EE                     l228:	
  1069  01EE  0008               	return
  1070  01EF                     __end_of_verificaAmPm:	
  1071                           
  1072                           	psect	text2
  1073  03F7                     __ptext2:	
  1074 ;; *************** function _parpadearDigitos *****************
  1075 ;; Defined at:
  1076 ;;		line 235 in file "main.c"
  1077 ;; Parameters:    Size  Location     Type
  1078 ;;		None
  1079 ;; Auto vars:     Size  Location     Type
  1080 ;;  repeticiones    1    2[COMMON] unsigned char 
  1081 ;; Return value:  Size  Location     Type
  1082 ;;                  1    wreg      void 
  1083 ;; Registers used:
  1084 ;;		wreg, fsr0l, fsr0h, status,2, status,0
  1085 ;; Tracked objects:
  1086 ;;		On entry : 0/0
  1087 ;;		On exit  : 0/0
  1088 ;;		Unchanged: 0/0
  1089 ;; Data sizes:     COMMON   BANK0   BANK1   BANK3   BANK2
  1090 ;;      Params:         0       0       0       0       0
  1091 ;;      Locals:         1       0       0       0       0
  1092 ;;      Temps:          2       0       0       0       0
  1093 ;;      Totals:         3       0       0       0       0
  1094 ;;Total ram usage:        3 bytes
  1095 ;; Hardware stack levels used:    1
  1096 ;; This function calls:
  1097 ;;		Nothing
  1098 ;; This function is called by:
  1099 ;;		_main
  1100 ;; This function uses a non-reentrant model
  1101 ;;
  1102                           
  1103                           
  1104                           ;psect for function _parpadearDigitos
  1105  03F7                     _parpadearDigitos:	
  1106  03F7                     l1957:	
  1107                           ;incstack = 0
  1108                           ; Regs used in _parpadearDigitos: [wreg-fsr0h+status,2+status,0]
  1109                           
  1110                           
  1111                           ;main.c: 237:     unsigned char repeticiones = 5;
  1112  03F7  3005               	movlw	5
  1113  03F8  00F0               	movwf	??_parpadearDigitos
  1114  03F9  0870               	movf	??_parpadearDigitos,w
  1115  03FA  00F2               	movwf	parpadearDigitos@repeticiones
  1116                           
  1117                           ;main.c: 238:     while (repeticiones) {
  1118  03FB  2C76               	goto	l2001
  1119  03FC                     l1959:	
  1120                           
  1121                           ;main.c: 240:         PORTD = numeros[contMin];
  1122  03FC  1283               	bcf	3,5	;RP0=0, select bank0
  1123  03FD  1303               	bcf	3,6	;RP1=0, select bank0
  1124  03FE  0841               	movf	_contMin,w
  1125  03FF  3E20               	addlw	(low (_numeros| 0))& (0+255)
  1126  0400  0084               	movwf	4
  1127  0401  1383               	bcf	3,7	;select IRP bank0
  1128  0402  0800               	movf	0,w
  1129  0403  0088               	movwf	8	;volatile
  1130  0404                     l1961:	
  1131                           
  1132                           ;main.c: 242:         if (contadorBotonSet == 1) {
  1133  0404  033C               	decf	_contadorBotonSet,w
  1134  0405  1D03               	btfss	3,2
  1135  0406  2C08               	goto	u1421
  1136  0407  2C09               	goto	u1420
  1137  0408                     u1421:	
  1138  0408  2C0E               	goto	l1965
  1139  0409                     u1420:	
  1140  0409                     l1963:	
  1141                           
  1142                           ;main.c: 243:             if (repeticiones == 1) {
  1143  0409  0372               	decf	parpadearDigitos@repeticiones,w
  1144  040A  1D03               	btfss	3,2
  1145  040B  2C0D               	goto	u1431
  1146  040C  2C0E               	goto	u1430
  1147  040D                     u1431:	
  1148  040D  2C18               	goto	l1969
  1149  040E                     u1430:	
  1150  040E                     l1965:	
  1151                           
  1152                           ;main.c: 244:                 PORTA = 1;
  1153  040E  3001               	movlw	1
  1154  040F  0085               	movwf	5	;volatile
  1155                           
  1156                           ;main.c: 245:                 _delay((unsigned long)((5)*(4000000/4000.0)));
  1157  0410  3007               	movlw	7
  1158  0411  00F1               	movwf	??_parpadearDigitos+1
  1159  0412  307D               	movlw	125
  1160  0413  00F0               	movwf	??_parpadearDigitos
  1161  0414                     u1727:	
  1162  0414  0BF0               	decfsz	??_parpadearDigitos,f
  1163  0415  2C14               	goto	u1727
  1164  0416  0BF1               	decfsz	??_parpadearDigitos+1,f
  1165  0417  2C14               	goto	u1727
  1166  0418                     l1969:	
  1167                           
  1168                           ;main.c: 252:         PORTD = numeros[contDecMin];
  1169  0418  1283               	bcf	3,5	;RP0=0, select bank0
  1170  0419  1303               	bcf	3,6	;RP1=0, select bank0
  1171  041A  0842               	movf	_contDecMin,w
  1172  041B  3E20               	addlw	(low (_numeros| 0))& (0+255)
  1173  041C  0084               	movwf	4
  1174  041D  1383               	bcf	3,7	;select IRP bank0
  1175  041E  0800               	movf	0,w
  1176  041F  0088               	movwf	8	;volatile
  1177  0420                     l1971:	
  1178                           
  1179                           ;main.c: 254:         if (contadorBotonSet == 2) {
  1180  0420  3002               	movlw	2
  1181  0421  063C               	xorwf	_contadorBotonSet,w
  1182  0422  1D03               	btfss	3,2
  1183  0423  2C25               	goto	u1441
  1184  0424  2C26               	goto	u1440
  1185  0425                     u1441:	
  1186  0425  2C2B               	goto	l1975
  1187  0426                     u1440:	
  1188  0426                     l1973:	
  1189                           
  1190                           ;main.c: 255:             if (repeticiones == 1) {
  1191  0426  0372               	decf	parpadearDigitos@repeticiones,w
  1192  0427  1D03               	btfss	3,2
  1193  0428  2C2A               	goto	u1451
  1194  0429  2C2B               	goto	u1450
  1195  042A                     u1451:	
  1196  042A  2C35               	goto	l1979
  1197  042B                     u1450:	
  1198  042B                     l1975:	
  1199                           
  1200                           ;main.c: 256:                 PORTA = 2;
  1201  042B  3002               	movlw	2
  1202  042C  0085               	movwf	5	;volatile
  1203                           
  1204                           ;main.c: 257:                 _delay((unsigned long)((5)*(4000000/4000.0)));
  1205  042D  3007               	movlw	7
  1206  042E  00F1               	movwf	??_parpadearDigitos+1
  1207  042F  307D               	movlw	125
  1208  0430  00F0               	movwf	??_parpadearDigitos
  1209  0431                     u1737:	
  1210  0431  0BF0               	decfsz	??_parpadearDigitos,f
  1211  0432  2C31               	goto	u1737
  1212  0433  0BF1               	decfsz	??_parpadearDigitos+1,f
  1213  0434  2C31               	goto	u1737
  1214  0435                     l1979:	
  1215                           
  1216                           ;main.c: 264:         PORTD = numeros[(*contHoraMostrar)] + 128;
  1217  0435  1283               	bcf	3,5	;RP0=0, select bank0
  1218  0436  1303               	bcf	3,6	;RP1=0, select bank0
  1219  0437  0843               	movf	_contHoraMostrar,w
  1220  0438  0084               	movwf	4
  1221  0439  1383               	bcf	3,7	;select IRP bank0
  1222  043A  0800               	movf	0,w
  1223  043B  3E20               	addlw	(low (_numeros| 0))& (0+255)
  1224  043C  0084               	movwf	4
  1225  043D  0800               	movf	0,w
  1226  043E  3E80               	addlw	128
  1227  043F  0088               	movwf	8	;volatile
  1228  0440                     l1981:	
  1229                           
  1230                           ;main.c: 266:         if (contadorBotonSet == 3) {
  1231  0440  3003               	movlw	3
  1232  0441  063C               	xorwf	_contadorBotonSet,w
  1233  0442  1D03               	btfss	3,2
  1234  0443  2C45               	goto	u1461
  1235  0444  2C46               	goto	u1460
  1236  0445                     u1461:	
  1237  0445  2C4B               	goto	l1985
  1238  0446                     u1460:	
  1239  0446                     l1983:	
  1240                           
  1241                           ;main.c: 267:             if (repeticiones == 1) {
  1242  0446  0372               	decf	parpadearDigitos@repeticiones,w
  1243  0447  1D03               	btfss	3,2
  1244  0448  2C4A               	goto	u1471
  1245  0449  2C4B               	goto	u1470
  1246  044A                     u1471:	
  1247  044A  2C55               	goto	l1989
  1248  044B                     u1470:	
  1249  044B                     l1985:	
  1250                           
  1251                           ;main.c: 268:                 PORTA = 4;
  1252  044B  3004               	movlw	4
  1253  044C  0085               	movwf	5	;volatile
  1254                           
  1255                           ;main.c: 269:                 _delay((unsigned long)((5)*(4000000/4000.0)));
  1256  044D  3007               	movlw	7
  1257  044E  00F1               	movwf	??_parpadearDigitos+1
  1258  044F  307D               	movlw	125
  1259  0450  00F0               	movwf	??_parpadearDigitos
  1260  0451                     u1747:	
  1261  0451  0BF0               	decfsz	??_parpadearDigitos,f
  1262  0452  2C51               	goto	u1747
  1263  0453  0BF1               	decfsz	??_parpadearDigitos+1,f
  1264  0454  2C51               	goto	u1747
  1265  0455                     l1989:	
  1266                           
  1267                           ;main.c: 276:         PORTD = numeros[(*contDecHoraMostrar)];
  1268  0455  1283               	bcf	3,5	;RP0=0, select bank0
  1269  0456  1303               	bcf	3,6	;RP1=0, select bank0
  1270  0457  0844               	movf	_contDecHoraMostrar,w
  1271  0458  0084               	movwf	4
  1272  0459  1383               	bcf	3,7	;select IRP bank0
  1273  045A  0800               	movf	0,w
  1274  045B  3E20               	addlw	(low (_numeros| 0))& (0+255)
  1275  045C  0084               	movwf	4
  1276  045D  0800               	movf	0,w
  1277  045E  0088               	movwf	8	;volatile
  1278  045F                     l1991:	
  1279                           
  1280                           ;main.c: 278:         if (contadorBotonSet == 3) {
  1281  045F  3003               	movlw	3
  1282  0460  063C               	xorwf	_contadorBotonSet,w
  1283  0461  1D03               	btfss	3,2
  1284  0462  2C64               	goto	u1481
  1285  0463  2C65               	goto	u1480
  1286  0464                     u1481:	
  1287  0464  2C6A               	goto	l1995
  1288  0465                     u1480:	
  1289  0465                     l1993:	
  1290                           
  1291                           ;main.c: 279:             if (repeticiones == 1) {
  1292  0465  0372               	decf	parpadearDigitos@repeticiones,w
  1293  0466  1D03               	btfss	3,2
  1294  0467  2C69               	goto	u1491
  1295  0468  2C6A               	goto	u1490
  1296  0469                     u1491:	
  1297  0469  2C74               	goto	l1999
  1298  046A                     u1490:	
  1299  046A                     l1995:	
  1300                           
  1301                           ;main.c: 280:                 PORTA = 8;
  1302  046A  3008               	movlw	8
  1303  046B  0085               	movwf	5	;volatile
  1304                           
  1305                           ;main.c: 281:                 _delay((unsigned long)((5)*(4000000/4000.0)));
  1306  046C  3007               	movlw	7
  1307  046D  00F1               	movwf	??_parpadearDigitos+1
  1308  046E  307D               	movlw	125
  1309  046F  00F0               	movwf	??_parpadearDigitos
  1310  0470                     u1757:	
  1311  0470  0BF0               	decfsz	??_parpadearDigitos,f
  1312  0471  2C70               	goto	u1757
  1313  0472  0BF1               	decfsz	??_parpadearDigitos+1,f
  1314  0473  2C70               	goto	u1757
  1315  0474                     l1999:	
  1316                           
  1317                           ;main.c: 288:         repeticiones--;
  1318  0474  3001               	movlw	1
  1319  0475  02F2               	subwf	parpadearDigitos@repeticiones,f
  1320  0476                     l2001:	
  1321                           
  1322                           ;main.c: 238:     while (repeticiones) {
  1323  0476  0872               	movf	parpadearDigitos@repeticiones,w
  1324  0477  1D03               	btfss	3,2
  1325  0478  2C7A               	goto	u1501
  1326  0479  2C7B               	goto	u1500
  1327  047A                     u1501:	
  1328  047A  2BFC               	goto	l1959
  1329  047B                     u1500:	
  1330  047B                     l214:	
  1331  047B  0008               	return
  1332  047C                     __end_of_parpadearDigitos:	
  1333                           
  1334                           	psect	text3
  1335  02B2                     __ptext3:	
  1336 ;; *************** function _mostrarDigitos *****************
  1337 ;; Defined at:
  1338 ;;		line 292 in file "main.c"
  1339 ;; Parameters:    Size  Location     Type
  1340 ;;		None
  1341 ;; Auto vars:     Size  Location     Type
  1342 ;;		None
  1343 ;; Return value:  Size  Location     Type
  1344 ;;                  1    wreg      void 
  1345 ;; Registers used:
  1346 ;;		wreg, fsr0l, fsr0h, status,2, status,0, btemp+1
  1347 ;; Tracked objects:
  1348 ;;		On entry : 0/0
  1349 ;;		On exit  : 0/0
  1350 ;;		Unchanged: 0/0
  1351 ;; Data sizes:     COMMON   BANK0   BANK1   BANK3   BANK2
  1352 ;;      Params:         0       0       0       0       0
  1353 ;;      Locals:         0       0       0       0       0
  1354 ;;      Temps:          2       0       0       0       0
  1355 ;;      Totals:         2       0       0       0       0
  1356 ;;Total ram usage:        2 bytes
  1357 ;; Hardware stack levels used:    1
  1358 ;; This function calls:
  1359 ;;		Nothing
  1360 ;; This function is called by:
  1361 ;;		_main
  1362 ;; This function uses a non-reentrant model
  1363 ;;
  1364                           
  1365                           
  1366                           ;psect for function _mostrarDigitos
  1367  02B2                     _mostrarDigitos:	
  1368  02B2                     l2003:	
  1369                           ;incstack = 0
  1370                           ; Regs used in _mostrarDigitos: [wreg-fsr0h+status,2+status,0+btemp+1]
  1371                           
  1372                           
  1373                           ;main.c: 294:     if (contadorBotonTemp < 2) {
  1374  02B2  1283               	bcf	3,5	;RP0=0, select bank0
  1375  02B3  1303               	bcf	3,6	;RP1=0, select bank0
  1376  02B4  0839               	movf	_contadorBotonTemp+1,w
  1377  02B5  3A80               	xorlw	128
  1378  02B6  00FF               	movwf	btemp+1
  1379  02B7  3080               	movlw	128
  1380  02B8  027F               	subwf	btemp+1,w
  1381  02B9  1D03               	skipz
  1382  02BA  2ABD               	goto	u1515
  1383  02BB  3002               	movlw	2
  1384  02BC  0238               	subwf	_contadorBotonTemp,w
  1385  02BD                     u1515:	
  1386  02BD  1803               	skipnc
  1387  02BE  2AC0               	goto	u1511
  1388  02BF  2AC1               	goto	u1510
  1389  02C0                     u1511:	
  1390  02C0  2B13               	goto	l2023
  1391  02C1                     u1510:	
  1392  02C1                     l2005:	
  1393                           
  1394                           ;main.c: 298:         PORTD = numeros[contMin];
  1395  02C1  1283               	bcf	3,5	;RP0=0, select bank0
  1396  02C2  1303               	bcf	3,6	;RP1=0, select bank0
  1397  02C3  0841               	movf	_contMin,w
  1398  02C4  3E20               	addlw	(low (_numeros| 0))& (0+255)
  1399  02C5  0084               	movwf	4
  1400  02C6  1383               	bcf	3,7	;select IRP bank0
  1401  02C7  0800               	movf	0,w
  1402  02C8  0088               	movwf	8	;volatile
  1403  02C9                     l2007:	
  1404                           
  1405                           ;main.c: 299:         PORTA = 1;
  1406  02C9  3001               	movlw	1
  1407  02CA  0085               	movwf	5	;volatile
  1408  02CB                     l2009:	
  1409                           
  1410                           ;main.c: 300:         _delay((unsigned long)((3)*(4000000/4000.0)));
  1411  02CB  3004               	movlw	4
  1412  02CC  00F1               	movwf	??_mostrarDigitos+1
  1413  02CD  30E4               	movlw	228
  1414  02CE  00F0               	movwf	??_mostrarDigitos
  1415  02CF                     u1767:	
  1416  02CF  0BF0               	decfsz	??_mostrarDigitos,f
  1417  02D0  2ACF               	goto	u1767
  1418  02D1  0BF1               	decfsz	??_mostrarDigitos+1,f
  1419  02D2  2ACF               	goto	u1767
  1420  02D3  0000               	nop
  1421                           
  1422                           ;main.c: 302:         PORTD = numeros[contDecMin];
  1423  02D4  1283               	bcf	3,5	;RP0=0, select bank0
  1424  02D5  1303               	bcf	3,6	;RP1=0, select bank0
  1425  02D6  0842               	movf	_contDecMin,w
  1426  02D7  3E20               	addlw	(low (_numeros| 0))& (0+255)
  1427  02D8  0084               	movwf	4
  1428  02D9  1383               	bcf	3,7	;select IRP bank0
  1429  02DA  0800               	movf	0,w
  1430  02DB  0088               	movwf	8	;volatile
  1431  02DC                     l2011:	
  1432                           
  1433                           ;main.c: 303:         PORTA = 2;
  1434  02DC  3002               	movlw	2
  1435  02DD  0085               	movwf	5	;volatile
  1436  02DE                     l2013:	
  1437                           
  1438                           ;main.c: 304:         _delay((unsigned long)((3)*(4000000/4000.0)));
  1439  02DE  3004               	movlw	4
  1440  02DF  00F1               	movwf	??_mostrarDigitos+1
  1441  02E0  30E4               	movlw	228
  1442  02E1  00F0               	movwf	??_mostrarDigitos
  1443  02E2                     u1777:	
  1444  02E2  0BF0               	decfsz	??_mostrarDigitos,f
  1445  02E3  2AE2               	goto	u1777
  1446  02E4  0BF1               	decfsz	??_mostrarDigitos+1,f
  1447  02E5  2AE2               	goto	u1777
  1448  02E6  0000               	nop
  1449                           
  1450                           ;main.c: 306:         PORTD = numeros[(*contHoraMostrar)] + 128;
  1451  02E7  1283               	bcf	3,5	;RP0=0, select bank0
  1452  02E8  1303               	bcf	3,6	;RP1=0, select bank0
  1453  02E9  0843               	movf	_contHoraMostrar,w
  1454  02EA  0084               	movwf	4
  1455  02EB  1383               	bcf	3,7	;select IRP bank0
  1456  02EC  0800               	movf	0,w
  1457  02ED  3E20               	addlw	(low (_numeros| 0))& (0+255)
  1458  02EE  0084               	movwf	4
  1459  02EF  0800               	movf	0,w
  1460  02F0  3E80               	addlw	128
  1461  02F1  0088               	movwf	8	;volatile
  1462  02F2                     l2015:	
  1463                           
  1464                           ;main.c: 307:         PORTA = 4;
  1465  02F2  3004               	movlw	4
  1466  02F3  0085               	movwf	5	;volatile
  1467  02F4                     l2017:	
  1468                           
  1469                           ;main.c: 308:         _delay((unsigned long)((3)*(4000000/4000.0)));
  1470  02F4  3004               	movlw	4
  1471  02F5  00F1               	movwf	??_mostrarDigitos+1
  1472  02F6  30E4               	movlw	228
  1473  02F7  00F0               	movwf	??_mostrarDigitos
  1474  02F8                     u1787:	
  1475  02F8  0BF0               	decfsz	??_mostrarDigitos,f
  1476  02F9  2AF8               	goto	u1787
  1477  02FA  0BF1               	decfsz	??_mostrarDigitos+1,f
  1478  02FB  2AF8               	goto	u1787
  1479  02FC  0000               	nop
  1480                           
  1481                           ;main.c: 310:         PORTD = numeros[(*contDecHoraMostrar)];
  1482  02FD  1283               	bcf	3,5	;RP0=0, select bank0
  1483  02FE  1303               	bcf	3,6	;RP1=0, select bank0
  1484  02FF  0844               	movf	_contDecHoraMostrar,w
  1485  0300  0084               	movwf	4
  1486  0301  1383               	bcf	3,7	;select IRP bank0
  1487  0302  0800               	movf	0,w
  1488  0303  3E20               	addlw	(low (_numeros| 0))& (0+255)
  1489  0304  0084               	movwf	4
  1490  0305  0800               	movf	0,w
  1491  0306  0088               	movwf	8	;volatile
  1492  0307                     l2019:	
  1493                           
  1494                           ;main.c: 311:         PORTA = 8;
  1495  0307  3008               	movlw	8
  1496  0308  0085               	movwf	5	;volatile
  1497  0309                     l2021:	
  1498                           
  1499                           ;main.c: 312:         _delay((unsigned long)((3)*(4000000/4000.0)));
  1500  0309  3004               	movlw	4
  1501  030A  00F1               	movwf	??_mostrarDigitos+1
  1502  030B  30E4               	movlw	228
  1503  030C  00F0               	movwf	??_mostrarDigitos
  1504  030D                     u1797:	
  1505  030D  0BF0               	decfsz	??_mostrarDigitos,f
  1506  030E  2B0D               	goto	u1797
  1507  030F  0BF1               	decfsz	??_mostrarDigitos+1,f
  1508  0310  2B0D               	goto	u1797
  1509  0311  0000               	nop
  1510                           
  1511                           ;main.c: 314:     } else {
  1512  0312  2B16               	goto	l219
  1513  0313                     l2023:	
  1514                           
  1515                           ;main.c: 315:         PORTA = 0;
  1516  0313  1283               	bcf	3,5	;RP0=0, select bank0
  1517  0314  1303               	bcf	3,6	;RP1=0, select bank0
  1518  0315  0185               	clrf	5	;volatile
  1519  0316                     l219:	
  1520  0316  0008               	return
  1521  0317                     __end_of_mostrarDigitos:	
  1522                           
  1523                           	psect	text4
  1524  00B3                     __ptext4:	
  1525 ;; *************** function _i2c_iniciar *****************
  1526 ;; Defined at:
  1527 ;;		line 4 in file "./I2C.h"
  1528 ;; Parameters:    Size  Location     Type
  1529 ;;		None
  1530 ;; Auto vars:     Size  Location     Type
  1531 ;;		None
  1532 ;; Return value:  Size  Location     Type
  1533 ;;                  1    wreg      void 
  1534 ;; Registers used:
  1535 ;;		wreg, status,2
  1536 ;; Tracked objects:
  1537 ;;		On entry : 0/0
  1538 ;;		On exit  : 0/0
  1539 ;;		Unchanged: 0/0
  1540 ;; Data sizes:     COMMON   BANK0   BANK1   BANK3   BANK2
  1541 ;;      Params:         0       0       0       0       0
  1542 ;;      Locals:         0       0       0       0       0
  1543 ;;      Temps:          0       0       0       0       0
  1544 ;;      Totals:         0       0       0       0       0
  1545 ;;Total ram usage:        0 bytes
  1546 ;; Hardware stack levels used:    1
  1547 ;; This function calls:
  1548 ;;		Nothing
  1549 ;; This function is called by:
  1550 ;;		_main
  1551 ;; This function uses a non-reentrant model
  1552 ;;
  1553                           
  1554                           
  1555                           ;psect for function _i2c_iniciar
  1556  00B3                     _i2c_iniciar:	
  1557  00B3                     l1845:	
  1558                           ;incstack = 0
  1559                           ; Regs used in _i2c_iniciar: [wreg+status,2]
  1560                           
  1561                           
  1562                           ;./I2C.h: 5:     RC3 = 1;
  1563  00B3  1283               	bcf	3,5	;RP0=0, select bank0
  1564  00B4  1303               	bcf	3,6	;RP1=0, select bank0
  1565  00B5  1587               	bsf	7,3	;volatile
  1566                           
  1567                           ;./I2C.h: 6:     RC4 = 1;
  1568  00B6  1607               	bsf	7,4	;volatile
  1569  00B7                     l1847:	
  1570                           
  1571                           ;./I2C.h: 7:     SSPSTAT = 0b10000000;
  1572  00B7  3080               	movlw	128
  1573  00B8  1683               	bsf	3,5	;RP0=1, select bank1
  1574  00B9  1303               	bcf	3,6	;RP1=0, select bank1
  1575  00BA  0094               	movwf	20	;volatile
  1576                           
  1577                           ;./I2C.h: 8:     SSPCON = 0b00101000;
  1578  00BB  3028               	movlw	40
  1579  00BC  1283               	bcf	3,5	;RP0=0, select bank0
  1580  00BD  1303               	bcf	3,6	;RP1=0, select bank0
  1581  00BE  0094               	movwf	20	;volatile
  1582  00BF                     l1849:	
  1583                           
  1584                           ;./I2C.h: 9:     SSPCON2 = 0b00000000;
  1585  00BF  1683               	bsf	3,5	;RP0=1, select bank1
  1586  00C0  1303               	bcf	3,6	;RP1=0, select bank1
  1587  00C1  0191               	clrf	17	;volatile
  1588  00C2                     l1851:	
  1589                           
  1590                           ;./I2C.h: 10:     SSPADD = 9;
  1591  00C2  3009               	movlw	9
  1592  00C3  0093               	movwf	19	;volatile
  1593  00C4                     l47:	
  1594  00C4  0008               	return
  1595  00C5                     __end_of_i2c_iniciar:	
  1596                           
  1597                           	psect	text5
  1598  05BD                     __ptext5:	
  1599 ;; *************** function _dameTemperatura *****************
  1600 ;; Defined at:
  1601 ;;		line 112 in file "main.c"
  1602 ;; Parameters:    Size  Location     Type
  1603 ;;		None
  1604 ;; Auto vars:     Size  Location     Type
  1605 ;;  repeticiones    2    5[BANK0 ] short 
  1606 ;;  temperatura     1    9[BANK0 ] unsigned char 
  1607 ;;  decenas         1    8[BANK0 ] unsigned char 
  1608 ;;  unidades        1    7[BANK0 ] unsigned char 
  1609 ;; Return value:  Size  Location     Type
  1610 ;;                  1    wreg      void 
  1611 ;; Registers used:
  1612 ;;		wreg, fsr0l, fsr0h, status,2, status,0, btemp+1, pclath, cstack
  1613 ;; Tracked objects:
  1614 ;;		On entry : 0/0
  1615 ;;		On exit  : 0/0
  1616 ;;		Unchanged: 0/0
  1617 ;; Data sizes:     COMMON   BANK0   BANK1   BANK3   BANK2
  1618 ;;      Params:         0       0       0       0       0
  1619 ;;      Locals:         0       5       0       0       0
  1620 ;;      Temps:          0       3       0       0       0
  1621 ;;      Totals:         0       8       0       0       0
  1622 ;;Total ram usage:        8 bytes
  1623 ;; Hardware stack levels used:    1
  1624 ;; Hardware stack levels required when called:    3
  1625 ;; This function calls:
  1626 ;;		___awdiv
  1627 ;;		___awmod
  1628 ;;		_antiRebote
  1629 ;;		_leer_rtc
  1630 ;; This function is called by:
  1631 ;;		_main
  1632 ;; This function uses a non-reentrant model
  1633 ;;
  1634                           
  1635                           
  1636                           ;psect for function _dameTemperatura
  1637  05BD                     _dameTemperatura:	
  1638  05BD                     l1853:	
  1639                           ;incstack = 0
  1640                           ; Regs used in _dameTemperatura: [wreg-fsr0h+status,2+status,0+btemp+1+pclath+cstack]
  1641                           
  1642                           
  1643                           ;main.c: 114:     antiRebote(1);
  1644  05BD  3001               	movlw	1
  1645  05BE  00F0               	movwf	antiRebote@pin
  1646  05BF  3000               	movlw	0
  1647  05C0  00F1               	movwf	antiRebote@pin+1
  1648  05C1  120A  118A  221B  120A  118A  	fcall	_antiRebote
  1649  05C6                     l1855:	
  1650                           
  1651                           ;main.c: 116:     contadorBotonTemp++;
  1652  05C6  3001               	movlw	1
  1653  05C7  1283               	bcf	3,5	;RP0=0, select bank0
  1654  05C8  1303               	bcf	3,6	;RP1=0, select bank0
  1655  05C9  07B8               	addwf	_contadorBotonTemp,f
  1656  05CA  1803               	skipnc
  1657  05CB  0AB9               	incf	_contadorBotonTemp+1,f
  1658  05CC  3000               	movlw	0
  1659  05CD  07B9               	addwf	_contadorBotonTemp+1,f
  1660  05CE                     l1857:	
  1661                           
  1662                           ;main.c: 118:     if (contadorBotonTemp > 2) {
  1663  05CE  0839               	movf	_contadorBotonTemp+1,w
  1664  05CF  3A80               	xorlw	128
  1665  05D0  00FF               	movwf	btemp+1
  1666  05D1  3080               	movlw	128
  1667  05D2  027F               	subwf	btemp+1,w
  1668  05D3  1D03               	skipz
  1669  05D4  2DD7               	goto	u1345
  1670  05D5  3003               	movlw	3
  1671  05D6  0238               	subwf	_contadorBotonTemp,w
  1672  05D7                     u1345:	
  1673  05D7  1C03               	skipc
  1674  05D8  2DDA               	goto	u1341
  1675  05D9  2DDB               	goto	u1340
  1676  05DA                     u1341:	
  1677  05DA  2DE0               	goto	l1861
  1678  05DB                     u1340:	
  1679  05DB                     l1859:	
  1680                           
  1681                           ;main.c: 119:         contadorBotonTemp = 0;
  1682  05DB  1283               	bcf	3,5	;RP0=0, select bank0
  1683  05DC  1303               	bcf	3,6	;RP1=0, select bank0
  1684  05DD  01B8               	clrf	_contadorBotonTemp
  1685  05DE  01B9               	clrf	_contadorBotonTemp+1
  1686                           
  1687                           ;main.c: 120:     } else if (contadorBotonTemp == 1) {
  1688  05DF  2E70               	goto	l170
  1689  05E0                     l1861:	
  1690  05E0  1283               	bcf	3,5	;RP0=0, select bank0
  1691  05E1  1303               	bcf	3,6	;RP1=0, select bank0
  1692  05E2  0338               	decf	_contadorBotonTemp,w
  1693  05E3  0439               	iorwf	_contadorBotonTemp+1,w
  1694  05E4  1D03               	btfss	3,2
  1695  05E5  2DE7               	goto	u1351
  1696  05E6  2DE8               	goto	u1350
  1697  05E7                     u1351:	
  1698  05E7  2E70               	goto	l170
  1699  05E8                     u1350:	
  1700  05E8                     l1863:	
  1701                           
  1702                           ;main.c: 122:         short int repeticiones = 400;
  1703  05E8  3090               	movlw	144
  1704  05E9  00B1               	movwf	dameTemperatura@repeticiones
  1705  05EA  3001               	movlw	1
  1706  05EB  00B2               	movwf	dameTemperatura@repeticiones+1
  1707  05EC                     l1865:	
  1708                           
  1709                           ;main.c: 123:         unsigned char unidades, decenas, temperatura;;main.c: 125:        
      +                           temperatura = leer_rtc(0x11);
  1710  05EC  3011               	movlw	17
  1711  05ED  120A  118A  21EF  120A  118A  	fcall	_leer_rtc
  1712  05F2  1283               	bcf	3,5	;RP0=0, select bank0
  1713  05F3  1303               	bcf	3,6	;RP1=0, select bank0
  1714  05F4  00AE               	movwf	??_dameTemperatura
  1715  05F5  082E               	movf	??_dameTemperatura,w
  1716  05F6  00B5               	movwf	dameTemperatura@temperatura
  1717  05F7                     l1867:	
  1718                           
  1719                           ;main.c: 127:         unidades = temperatura % 10;
  1720  05F7  300A               	movlw	10
  1721  05F8  00F9               	movwf	___awmod@divisor
  1722  05F9  3000               	movlw	0
  1723  05FA  00FA               	movwf	___awmod@divisor+1
  1724  05FB  0835               	movf	dameTemperatura@temperatura,w
  1725  05FC  00AE               	movwf	??_dameTemperatura
  1726  05FD  01AF               	clrf	??_dameTemperatura+1
  1727  05FE  082E               	movf	??_dameTemperatura,w
  1728  05FF  00FB               	movwf	___awmod@dividend
  1729  0600  082F               	movf	??_dameTemperatura+1,w
  1730  0601  00FC               	movwf	___awmod@dividend+1
  1731  0602  120A  118A  2257  120A  118A  	fcall	___awmod
  1732  0607  0879               	movf	?___awmod,w
  1733  0608  1283               	bcf	3,5	;RP0=0, select bank0
  1734  0609  1303               	bcf	3,6	;RP1=0, select bank0
  1735  060A  00B0               	movwf	??_dameTemperatura+2
  1736  060B  0830               	movf	??_dameTemperatura+2,w
  1737  060C  00B3               	movwf	dameTemperatura@unidades
  1738  060D                     l1869:	
  1739                           
  1740                           ;main.c: 128:         decenas = (temperatura / 10) % 10;
  1741  060D  300A               	movlw	10
  1742  060E  00F9               	movwf	___awmod@divisor
  1743  060F  3000               	movlw	0
  1744  0610  00FA               	movwf	___awmod@divisor+1
  1745  0611  300A               	movlw	10
  1746  0612  00F0               	movwf	___awdiv@divisor
  1747  0613  3000               	movlw	0
  1748  0614  00F1               	movwf	___awdiv@divisor+1
  1749  0615  0835               	movf	dameTemperatura@temperatura,w
  1750  0616  00AE               	movwf	??_dameTemperatura
  1751  0617  01AF               	clrf	??_dameTemperatura+1
  1752  0618  082E               	movf	??_dameTemperatura,w
  1753  0619  00F2               	movwf	___awdiv@dividend
  1754  061A  082F               	movf	??_dameTemperatura+1,w
  1755  061B  00F3               	movwf	___awdiv@dividend+1
  1756  061C  120A  118A  2317  120A  118A  	fcall	___awdiv
  1757  0621  0871               	movf	?___awdiv+1,w
  1758  0622  00FC               	movwf	___awmod@dividend+1
  1759  0623  0870               	movf	?___awdiv,w
  1760  0624  00FB               	movwf	___awmod@dividend
  1761  0625  120A  118A  2257  120A  118A  	fcall	___awmod
  1762  062A  0879               	movf	?___awmod,w
  1763  062B  1283               	bcf	3,5	;RP0=0, select bank0
  1764  062C  1303               	bcf	3,6	;RP1=0, select bank0
  1765  062D  00B0               	movwf	??_dameTemperatura+2
  1766  062E  0830               	movf	??_dameTemperatura+2,w
  1767  062F  00B4               	movwf	dameTemperatura@decenas
  1768                           
  1769                           ;main.c: 130:         while (repeticiones) {
  1770  0630  2E66               	goto	l1887
  1771  0631                     l1871:	
  1772                           
  1773                           ;main.c: 132:             PORTD = numeros[unidades];
  1774  0631  0833               	movf	dameTemperatura@unidades,w
  1775  0632  3E20               	addlw	(low (_numeros| 0))& (0+255)
  1776  0633  0084               	movwf	4
  1777  0634  1383               	bcf	3,7	;select IRP bank0
  1778  0635  0800               	movf	0,w
  1779  0636  0088               	movwf	8	;volatile
  1780  0637                     l1873:	
  1781                           
  1782                           ;main.c: 133:             PORTA = 1;
  1783  0637  3001               	movlw	1
  1784  0638  0085               	movwf	5	;volatile
  1785  0639                     l1875:	
  1786                           
  1787                           ;main.c: 134:             _delay((unsigned long)((3)*(4000000/4000.0)));
  1788  0639  3004               	movlw	4
  1789  063A  1283               	bcf	3,5	;RP0=0, select bank0
  1790  063B  1303               	bcf	3,6	;RP1=0, select bank0
  1791  063C  00AF               	movwf	??_dameTemperatura+1
  1792  063D  30E3               	movlw	227
  1793  063E  00AE               	movwf	??_dameTemperatura
  1794  063F                     u1807:	
  1795  063F  0BAE               	decfsz	??_dameTemperatura,f
  1796  0640  2E3F               	goto	u1807
  1797  0641  0BAF               	decfsz	??_dameTemperatura+1,f
  1798  0642  2E3F               	goto	u1807
  1799  0643  2E44               	nop2
  1800  0644                     l1877:	
  1801                           
  1802                           ;main.c: 136:             if (decenas) {
  1803  0644  1283               	bcf	3,5	;RP0=0, select bank0
  1804  0645  1303               	bcf	3,6	;RP1=0, select bank0
  1805  0646  0834               	movf	dameTemperatura@decenas,w
  1806  0647  1903               	btfsc	3,2
  1807  0648  2E4A               	goto	u1361
  1808  0649  2E4B               	goto	u1360
  1809  064A                     u1361:	
  1810  064A  2E5E               	goto	l1885
  1811  064B                     u1360:	
  1812  064B                     l1879:	
  1813                           
  1814                           ;main.c: 137:                 PORTD = numeros[decenas];
  1815  064B  0834               	movf	dameTemperatura@decenas,w
  1816  064C  3E20               	addlw	(low (_numeros| 0))& (0+255)
  1817  064D  0084               	movwf	4
  1818  064E  1383               	bcf	3,7	;select IRP bank0
  1819  064F  0800               	movf	0,w
  1820  0650  0088               	movwf	8	;volatile
  1821  0651                     l1881:	
  1822                           
  1823                           ;main.c: 138:                 PORTA = 2;
  1824  0651  3002               	movlw	2
  1825  0652  0085               	movwf	5	;volatile
  1826  0653                     l1883:	
  1827                           
  1828                           ;main.c: 139:                 _delay((unsigned long)((3)*(4000000/4000.0)));
  1829  0653  3004               	movlw	4
  1830  0654  1283               	bcf	3,5	;RP0=0, select bank0
  1831  0655  1303               	bcf	3,6	;RP1=0, select bank0
  1832  0656  00AF               	movwf	??_dameTemperatura+1
  1833  0657  30E3               	movlw	227
  1834  0658  00AE               	movwf	??_dameTemperatura
  1835  0659                     u1817:	
  1836  0659  0BAE               	decfsz	??_dameTemperatura,f
  1837  065A  2E59               	goto	u1817
  1838  065B  0BAF               	decfsz	??_dameTemperatura+1,f
  1839  065C  2E59               	goto	u1817
  1840  065D  2E5E               	nop2
  1841  065E                     l1885:	
  1842                           
  1843                           ;main.c: 142:             repeticiones--;
  1844  065E  30FF               	movlw	255
  1845  065F  1283               	bcf	3,5	;RP0=0, select bank0
  1846  0660  1303               	bcf	3,6	;RP1=0, select bank0
  1847  0661  07B1               	addwf	dameTemperatura@repeticiones,f
  1848  0662  1803               	skipnc
  1849  0663  0AB2               	incf	dameTemperatura@repeticiones+1,f
  1850  0664  30FF               	movlw	255
  1851  0665  07B2               	addwf	dameTemperatura@repeticiones+1,f
  1852  0666                     l1887:	
  1853                           
  1854                           ;main.c: 130:         while (repeticiones) {
  1855  0666  0831               	movf	dameTemperatura@repeticiones,w
  1856  0667  0432               	iorwf	dameTemperatura@repeticiones+1,w
  1857  0668  1D03               	btfss	3,2
  1858  0669  2E6B               	goto	u1371
  1859  066A  2E6C               	goto	u1370
  1860  066B                     u1371:	
  1861  066B  2E31               	goto	l1871
  1862  066C                     u1370:	
  1863  066C                     l1889:	
  1864                           
  1865                           ;main.c: 146:         numeroActual = contMin;
  1866  066C  0841               	movf	_contMin,w
  1867  066D  00AE               	movwf	??_dameTemperatura
  1868  066E  082E               	movf	??_dameTemperatura,w
  1869  066F  00BD               	movwf	_numeroActual
  1870  0670                     l170:	
  1871  0670  0008               	return
  1872  0671                     __end_of_dameTemperatura:	
  1873                           
  1874                           	psect	text6
  1875  047C                     __ptext6:	
  1876 ;; *************** function _dameHoraActual *****************
  1877 ;; Defined at:
  1878 ;;		line 462 in file "main.c"
  1879 ;; Parameters:    Size  Location     Type
  1880 ;;		None
  1881 ;; Auto vars:     Size  Location     Type
  1882 ;;  auxHora         1    6[BANK0 ] unsigned char 
  1883 ;;  auxMin          1    5[BANK0 ] unsigned char 
  1884 ;; Return value:  Size  Location     Type
  1885 ;;                  1    wreg      void 
  1886 ;; Registers used:
  1887 ;;		wreg, status,2, status,0, pclath, cstack
  1888 ;; Tracked objects:
  1889 ;;		On entry : 0/0
  1890 ;;		On exit  : 0/0
  1891 ;;		Unchanged: 0/0
  1892 ;; Data sizes:     COMMON   BANK0   BANK1   BANK3   BANK2
  1893 ;;      Params:         0       0       0       0       0
  1894 ;;      Locals:         0       2       0       0       0
  1895 ;;      Temps:          0       3       0       0       0
  1896 ;;      Totals:         0       5       0       0       0
  1897 ;;Total ram usage:        5 bytes
  1898 ;; Hardware stack levels used:    1
  1899 ;; Hardware stack levels required when called:    3
  1900 ;; This function calls:
  1901 ;;		___awdiv
  1902 ;;		___awmod
  1903 ;;		_convertirDato
  1904 ;;		_leer_rtc
  1905 ;; This function is called by:
  1906 ;;		_main
  1907 ;; This function uses a non-reentrant model
  1908 ;;
  1909                           
  1910                           
  1911                           ;psect for function _dameHoraActual
  1912  047C                     _dameHoraActual:	
  1913  047C                     l2133:	
  1914                           ;incstack = 0
  1915                           ; Regs used in _dameHoraActual: [wreg+status,2+status,0+pclath+cstack]
  1916                           
  1917                           
  1918                           ;main.c: 464:     unsigned char auxMin, auxHora;;main.c: 466:     auxMin = convertirDato
      +                          (leer_rtc(0x01));
  1919  047C  3001               	movlw	1
  1920  047D  120A  118A  21EF  120A  118A  	fcall	_leer_rtc
  1921  0482  120A  118A  21A3  120A  118A  	fcall	_convertirDato
  1922  0487  1283               	bcf	3,5	;RP0=0, select bank0
  1923  0488  1303               	bcf	3,6	;RP1=0, select bank0
  1924  0489  00AE               	movwf	??_dameHoraActual
  1925  048A  082E               	movf	??_dameHoraActual,w
  1926  048B  00B1               	movwf	dameHoraActual@auxMin
  1927                           
  1928                           ;main.c: 467:     contMin = auxMin % 10;
  1929  048C  300A               	movlw	10
  1930  048D  00F9               	movwf	___awmod@divisor
  1931  048E  3000               	movlw	0
  1932  048F  00FA               	movwf	___awmod@divisor+1
  1933  0490  0831               	movf	dameHoraActual@auxMin,w
  1934  0491  00AE               	movwf	??_dameHoraActual
  1935  0492  01AF               	clrf	??_dameHoraActual+1
  1936  0493  082E               	movf	??_dameHoraActual,w
  1937  0494  00FB               	movwf	___awmod@dividend
  1938  0495  082F               	movf	??_dameHoraActual+1,w
  1939  0496  00FC               	movwf	___awmod@dividend+1
  1940  0497  120A  118A  2257  120A  118A  	fcall	___awmod
  1941  049C  0879               	movf	?___awmod,w
  1942  049D  1283               	bcf	3,5	;RP0=0, select bank0
  1943  049E  1303               	bcf	3,6	;RP1=0, select bank0
  1944  049F  00B0               	movwf	??_dameHoraActual+2
  1945  04A0  0830               	movf	??_dameHoraActual+2,w
  1946  04A1  00C1               	movwf	_contMin
  1947                           
  1948                           ;main.c: 468:     contDecMin = (auxMin / 10) % 10;
  1949  04A2  300A               	movlw	10
  1950  04A3  00F9               	movwf	___awmod@divisor
  1951  04A4  3000               	movlw	0
  1952  04A5  00FA               	movwf	___awmod@divisor+1
  1953  04A6  300A               	movlw	10
  1954  04A7  00F0               	movwf	___awdiv@divisor
  1955  04A8  3000               	movlw	0
  1956  04A9  00F1               	movwf	___awdiv@divisor+1
  1957  04AA  0831               	movf	dameHoraActual@auxMin,w
  1958  04AB  00AE               	movwf	??_dameHoraActual
  1959  04AC  01AF               	clrf	??_dameHoraActual+1
  1960  04AD  082E               	movf	??_dameHoraActual,w
  1961  04AE  00F2               	movwf	___awdiv@dividend
  1962  04AF  082F               	movf	??_dameHoraActual+1,w
  1963  04B0  00F3               	movwf	___awdiv@dividend+1
  1964  04B1  120A  118A  2317  120A  118A  	fcall	___awdiv
  1965  04B6  0871               	movf	?___awdiv+1,w
  1966  04B7  00FC               	movwf	___awmod@dividend+1
  1967  04B8  0870               	movf	?___awdiv,w
  1968  04B9  00FB               	movwf	___awmod@dividend
  1969  04BA  120A  118A  2257  120A  118A  	fcall	___awmod
  1970  04BF  0879               	movf	?___awmod,w
  1971  04C0  1283               	bcf	3,5	;RP0=0, select bank0
  1972  04C1  1303               	bcf	3,6	;RP1=0, select bank0
  1973  04C2  00B0               	movwf	??_dameHoraActual+2
  1974  04C3  0830               	movf	??_dameHoraActual+2,w
  1975  04C4  00C2               	movwf	_contDecMin
  1976                           
  1977                           ;main.c: 470:     auxHora = convertirDato(leer_rtc(0x02));
  1978  04C5  3002               	movlw	2
  1979  04C6  120A  118A  21EF  120A  118A  	fcall	_leer_rtc
  1980  04CB  120A  118A  21A3  120A  118A  	fcall	_convertirDato
  1981  04D0  1283               	bcf	3,5	;RP0=0, select bank0
  1982  04D1  1303               	bcf	3,6	;RP1=0, select bank0
  1983  04D2  00AE               	movwf	??_dameHoraActual
  1984  04D3  082E               	movf	??_dameHoraActual,w
  1985  04D4  00B2               	movwf	dameHoraActual@auxHora
  1986                           
  1987                           ;main.c: 471:     contHora = auxHora % 10;
  1988  04D5  300A               	movlw	10
  1989  04D6  00F9               	movwf	___awmod@divisor
  1990  04D7  3000               	movlw	0
  1991  04D8  00FA               	movwf	___awmod@divisor+1
  1992  04D9  0832               	movf	dameHoraActual@auxHora,w
  1993  04DA  00AE               	movwf	??_dameHoraActual
  1994  04DB  01AF               	clrf	??_dameHoraActual+1
  1995  04DC  082E               	movf	??_dameHoraActual,w
  1996  04DD  00FB               	movwf	___awmod@dividend
  1997  04DE  082F               	movf	??_dameHoraActual+1,w
  1998  04DF  00FC               	movwf	___awmod@dividend+1
  1999  04E0  120A  118A  2257  120A  118A  	fcall	___awmod
  2000  04E5  0879               	movf	?___awmod,w
  2001  04E6  1283               	bcf	3,5	;RP0=0, select bank0
  2002  04E7  1303               	bcf	3,6	;RP1=0, select bank0
  2003  04E8  00B0               	movwf	??_dameHoraActual+2
  2004  04E9  0830               	movf	??_dameHoraActual+2,w
  2005  04EA  00AA               	movwf	_contHora
  2006                           
  2007                           ;main.c: 472:     contDecHora = (auxHora / 10) % 10;
  2008  04EB  300A               	movlw	10
  2009  04EC  00F9               	movwf	___awmod@divisor
  2010  04ED  3000               	movlw	0
  2011  04EE  00FA               	movwf	___awmod@divisor+1
  2012  04EF  300A               	movlw	10
  2013  04F0  00F0               	movwf	___awdiv@divisor
  2014  04F1  3000               	movlw	0
  2015  04F2  00F1               	movwf	___awdiv@divisor+1
  2016  04F3  0832               	movf	dameHoraActual@auxHora,w
  2017  04F4  00AE               	movwf	??_dameHoraActual
  2018  04F5  01AF               	clrf	??_dameHoraActual+1
  2019  04F6  082E               	movf	??_dameHoraActual,w
  2020  04F7  00F2               	movwf	___awdiv@dividend
  2021  04F8  082F               	movf	??_dameHoraActual+1,w
  2022  04F9  00F3               	movwf	___awdiv@dividend+1
  2023  04FA  120A  118A  2317  120A  118A  	fcall	___awdiv
  2024  04FF  0871               	movf	?___awdiv+1,w
  2025  0500  00FC               	movwf	___awmod@dividend+1
  2026  0501  0870               	movf	?___awdiv,w
  2027  0502  00FB               	movwf	___awmod@dividend
  2028  0503  120A  118A  2257  120A  118A  	fcall	___awmod
  2029  0508  0879               	movf	?___awmod,w
  2030  0509  1283               	bcf	3,5	;RP0=0, select bank0
  2031  050A  1303               	bcf	3,6	;RP1=0, select bank0
  2032  050B  00B0               	movwf	??_dameHoraActual+2
  2033  050C  0830               	movf	??_dameHoraActual+2,w
  2034  050D  00AB               	movwf	_contDecHora
  2035  050E                     l260:	
  2036  050E  0008               	return
  2037  050F                     __end_of_dameHoraActual:	
  2038                           
  2039                           	psect	text7
  2040  01EF                     __ptext7:	
  2041 ;; *************** function _leer_rtc *****************
  2042 ;; Defined at:
  2043 ;;		line 13 in file "./RTC.h"
  2044 ;; Parameters:    Size  Location     Type
  2045 ;;  direccion       1    wreg     unsigned char 
  2046 ;; Auto vars:     Size  Location     Type
  2047 ;;  direccion       1    3[COMMON] unsigned char 
  2048 ;;  dato            1    4[COMMON] unsigned char 
  2049 ;; Return value:  Size  Location     Type
  2050 ;;                  1    wreg      unsigned char 
  2051 ;; Registers used:
  2052 ;;		wreg, status,2, status,0, pclath, cstack
  2053 ;; Tracked objects:
  2054 ;;		On entry : 0/0
  2055 ;;		On exit  : 0/0
  2056 ;;		Unchanged: 0/0
  2057 ;; Data sizes:     COMMON   BANK0   BANK1   BANK3   BANK2
  2058 ;;      Params:         0       0       0       0       0
  2059 ;;      Locals:         2       0       0       0       0
  2060 ;;      Temps:          1       0       0       0       0
  2061 ;;      Totals:         3       0       0       0       0
  2062 ;;Total ram usage:        3 bytes
  2063 ;; Hardware stack levels used:    1
  2064 ;; Hardware stack levels required when called:    2
  2065 ;; This function calls:
  2066 ;;		_i2c_detener
  2067 ;;		_i2c_envia_dato
  2068 ;;		_i2c_inicia_com
  2069 ;;		_i2c_recibe_dato
  2070 ;;		_i2c_reinicia_com
  2071 ;; This function is called by:
  2072 ;;		_dameTemperatura
  2073 ;;		_dameHoraActual
  2074 ;; This function uses a non-reentrant model
  2075 ;;
  2076                           
  2077                           
  2078                           ;psect for function _leer_rtc
  2079  01EF                     _leer_rtc:	
  2080                           
  2081                           ;incstack = 0
  2082                           ; Regs used in _leer_rtc: [wreg+status,2+status,0+pclath+cstack]
  2083                           ;leer_rtc@direccion stored from wreg
  2084  01EF  00F3               	movwf	leer_rtc@direccion
  2085  01F0                     l1659:	
  2086                           
  2087                           ;./RTC.h: 14:     unsigned char dato;;./RTC.h: 15:     i2c_inicia_com();
  2088  01F0  120A  118A  207D  120A  118A  	fcall	_i2c_inicia_com
  2089                           
  2090                           ;./RTC.h: 16:     i2c_envia_dato(0xD0);
  2091  01F5  30D0               	movlw	208
  2092  01F6  120A  118A  208F  120A  118A  	fcall	_i2c_envia_dato
  2093                           
  2094                           ;./RTC.h: 17:     i2c_envia_dato(direccion);
  2095  01FB  0873               	movf	leer_rtc@direccion,w
  2096  01FC  120A  118A  208F  120A  118A  	fcall	_i2c_envia_dato
  2097                           
  2098                           ;./RTC.h: 18:     i2c_reinicia_com();
  2099  0201  120A  118A  2086  120A  118A  	fcall	_i2c_reinicia_com
  2100                           
  2101                           ;./RTC.h: 19:     i2c_envia_dato(0xD1);
  2102  0206  30D1               	movlw	209
  2103  0207  120A  118A  208F  120A  118A  	fcall	_i2c_envia_dato
  2104                           
  2105                           ;./RTC.h: 20:     dato = i2c_recibe_dato();
  2106  020C  120A  118A  2145  120A  118A  	fcall	_i2c_recibe_dato
  2107  0211  00F2               	movwf	??_leer_rtc
  2108  0212  0872               	movf	??_leer_rtc,w
  2109  0213  00F4               	movwf	leer_rtc@dato
  2110                           
  2111                           ;./RTC.h: 21:     i2c_detener();
  2112  0214  120A  118A  2074  120A  118A  	fcall	_i2c_detener
  2113  0219                     l1661:	
  2114                           
  2115                           ;./RTC.h: 22:     return dato;
  2116  0219  0874               	movf	leer_rtc@dato,w
  2117  021A                     l74:	
  2118  021A  0008               	return
  2119  021B                     __end_of_leer_rtc:	
  2120                           
  2121                           	psect	text8
  2122  0086                     __ptext8:	
  2123 ;; *************** function _i2c_reinicia_com *****************
  2124 ;; Defined at:
  2125 ;;		line 37 in file "./I2C.h"
  2126 ;; Parameters:    Size  Location     Type
  2127 ;;		None
  2128 ;; Auto vars:     Size  Location     Type
  2129 ;;		None
  2130 ;; Return value:  Size  Location     Type
  2131 ;;                  1    wreg      void 
  2132 ;; Registers used:
  2133 ;;		wreg, status,2, status,0, pclath, cstack
  2134 ;; Tracked objects:
  2135 ;;		On entry : 0/0
  2136 ;;		On exit  : 0/0
  2137 ;;		Unchanged: 0/0
  2138 ;; Data sizes:     COMMON   BANK0   BANK1   BANK3   BANK2
  2139 ;;      Params:         0       0       0       0       0
  2140 ;;      Locals:         0       0       0       0       0
  2141 ;;      Temps:          0       0       0       0       0
  2142 ;;      Totals:         0       0       0       0       0
  2143 ;;Total ram usage:        0 bytes
  2144 ;; Hardware stack levels used:    1
  2145 ;; Hardware stack levels required when called:    1
  2146 ;; This function calls:
  2147 ;;		_i2c_espera
  2148 ;; This function is called by:
  2149 ;;		_leer_rtc
  2150 ;; This function uses a non-reentrant model
  2151 ;;
  2152                           
  2153                           
  2154                           ;psect for function _i2c_reinicia_com
  2155  0086                     _i2c_reinicia_com:	
  2156  0086                     l1625:	
  2157                           ;incstack = 0
  2158                           ; Regs used in _i2c_reinicia_com: [wreg+status,2+status,0+pclath+cstack]
  2159                           
  2160                           
  2161                           ;./I2C.h: 38:     i2c_espera();
  2162  0086  120A  118A  20A6  120A  118A  	fcall	_i2c_espera
  2163  008B                     l1627:	
  2164                           
  2165                           ;./I2C.h: 39:     SSPCON2bits.RSEN = 1;
  2166  008B  1683               	bsf	3,5	;RP0=1, select bank1
  2167  008C  1303               	bcf	3,6	;RP1=0, select bank1
  2168  008D  1491               	bsf	17,1	;volatile
  2169  008E                     l59:	
  2170  008E  0008               	return
  2171  008F                     __end_of_i2c_reinicia_com:	
  2172                           
  2173                           	psect	text9
  2174  0145                     __ptext9:	
  2175 ;; *************** function _i2c_recibe_dato *****************
  2176 ;; Defined at:
  2177 ;;		line 68 in file "./I2C.h"
  2178 ;; Parameters:    Size  Location     Type
  2179 ;;		None
  2180 ;; Auto vars:     Size  Location     Type
  2181 ;;  datoleido       1    1[COMMON] unsigned char 
  2182 ;; Return value:  Size  Location     Type
  2183 ;;                  1    wreg      unsigned char 
  2184 ;; Registers used:
  2185 ;;		wreg, status,2, status,0, pclath, cstack
  2186 ;; Tracked objects:
  2187 ;;		On entry : 0/0
  2188 ;;		On exit  : 0/0
  2189 ;;		Unchanged: 0/0
  2190 ;; Data sizes:     COMMON   BANK0   BANK1   BANK3   BANK2
  2191 ;;      Params:         0       0       0       0       0
  2192 ;;      Locals:         1       0       0       0       0
  2193 ;;      Temps:          1       0       0       0       0
  2194 ;;      Totals:         2       0       0       0       0
  2195 ;;Total ram usage:        2 bytes
  2196 ;; Hardware stack levels used:    1
  2197 ;; Hardware stack levels required when called:    1
  2198 ;; This function calls:
  2199 ;;		_i2c_espera
  2200 ;; This function is called by:
  2201 ;;		_leer_rtc
  2202 ;; This function uses a non-reentrant model
  2203 ;;
  2204                           
  2205                           
  2206                           ;psect for function _i2c_recibe_dato
  2207  0145                     _i2c_recibe_dato:	
  2208  0145                     l1629:	
  2209                           ;incstack = 0
  2210                           ; Regs used in _i2c_recibe_dato: [wreg+status,2+status,0+pclath+cstack]
  2211                           
  2212                           
  2213                           ;./I2C.h: 70:     unsigned char datoleido;;./I2C.h: 73:     i2c_espera();
  2214  0145  120A  118A  20A6  120A  118A  	fcall	_i2c_espera
  2215  014A                     l1631:	
  2216                           
  2217                           ;./I2C.h: 74:     SSPCON2bits.RCEN = 1;
  2218  014A  1683               	bsf	3,5	;RP0=1, select bank1
  2219  014B  1303               	bcf	3,6	;RP1=0, select bank1
  2220  014C  1591               	bsf	17,3	;volatile
  2221                           
  2222                           ;./I2C.h: 76:     i2c_espera();
  2223  014D  120A  118A  20A6  120A  118A  	fcall	_i2c_espera
  2224  0152                     l1633:	
  2225                           
  2226                           ;./I2C.h: 77:     datoleido = SSPBUF;
  2227  0152  1283               	bcf	3,5	;RP0=0, select bank0
  2228  0153  1303               	bcf	3,6	;RP1=0, select bank0
  2229  0154  0813               	movf	19,w	;volatile
  2230  0155  00F0               	movwf	??_i2c_recibe_dato
  2231  0156  0870               	movf	??_i2c_recibe_dato,w
  2232  0157  00F1               	movwf	i2c_recibe_dato@datoleido
  2233  0158                     l1635:	
  2234                           
  2235                           ;./I2C.h: 80:     i2c_espera();
  2236  0158  120A  118A  20A6  120A  118A  	fcall	_i2c_espera
  2237  015D                     l1637:	
  2238                           
  2239                           ;./I2C.h: 82:     SSPCON2bits.ACKDT = 1;
  2240  015D  1683               	bsf	3,5	;RP0=1, select bank1
  2241  015E  1303               	bcf	3,6	;RP1=0, select bank1
  2242  015F  1691               	bsf	17,5	;volatile
  2243  0160                     l1639:	
  2244                           
  2245                           ;./I2C.h: 87:     SSPCON2bits.ACKEN = 1;
  2246  0160  1611               	bsf	17,4	;volatile
  2247                           
  2248                           ;./I2C.h: 91:     return datoleido;
  2249  0161  0871               	movf	i2c_recibe_dato@datoleido,w
  2250  0162                     l68:	
  2251  0162  0008               	return
  2252  0163                     __end_of_i2c_recibe_dato:	
  2253                           
  2254                           	psect	text10
  2255  01A3                     __ptext10:	
  2256 ;; *************** function _convertirDato *****************
  2257 ;; Defined at:
  2258 ;;		line 28 in file "./RTC.h"
  2259 ;; Parameters:    Size  Location     Type
  2260 ;;  dato            1    wreg     unsigned char 
  2261 ;; Auto vars:     Size  Location     Type
  2262 ;;  dato            1    7[COMMON] unsigned char 
  2263 ;;  datoR           1    8[COMMON] unsigned char 
  2264 ;; Return value:  Size  Location     Type
  2265 ;;                  1    wreg      unsigned char 
  2266 ;; Registers used:
  2267 ;;		wreg, status,2, status,0, pclath, cstack
  2268 ;; Tracked objects:
  2269 ;;		On entry : 0/0
  2270 ;;		On exit  : 0/0
  2271 ;;		Unchanged: 0/0
  2272 ;; Data sizes:     COMMON   BANK0   BANK1   BANK3   BANK2
  2273 ;;      Params:         0       0       0       0       0
  2274 ;;      Locals:         2       0       0       0       0
  2275 ;;      Temps:          3       0       0       0       0
  2276 ;;      Totals:         5       0       0       0       0
  2277 ;;Total ram usage:        5 bytes
  2278 ;; Hardware stack levels used:    1
  2279 ;; Hardware stack levels required when called:    1
  2280 ;; This function calls:
  2281 ;;		___bmul
  2282 ;; This function is called by:
  2283 ;;		_dameHoraActual
  2284 ;; This function uses a non-reentrant model
  2285 ;;
  2286                           
  2287                           
  2288                           ;psect for function _convertirDato
  2289  01A3                     _convertirDato:	
  2290                           
  2291                           ;incstack = 0
  2292                           ; Regs used in _convertirDato: [wreg+status,2+status,0+pclath+cstack]
  2293                           ;convertirDato@dato stored from wreg
  2294  01A3  00F7               	movwf	convertirDato@dato
  2295  01A4                     l1665:	
  2296  01A4                     l1667:	
  2297                           
  2298                           ;./RTC.h: 30:     datoR = (dato & 0xF0) >> 4;
  2299  01A4  0877               	movf	convertirDato@dato,w
  2300  01A5  00F4               	movwf	??_convertirDato
  2301  01A6  3004               	movlw	4
  2302  01A7                     u905:	
  2303  01A7  1003               	clrc
  2304  01A8  0CF4               	rrf	??_convertirDato,f
  2305  01A9  3EFF               	addlw	-1
  2306  01AA  1D03               	skipz
  2307  01AB  29A7               	goto	u905
  2308  01AC  0874               	movf	??_convertirDato,w
  2309  01AD  390F               	andlw	15
  2310  01AE  00F5               	movwf	??_convertirDato+1
  2311  01AF  0875               	movf	??_convertirDato+1,w
  2312  01B0  00F8               	movwf	convertirDato@datoR
  2313  01B1                     l1669:	
  2314                           
  2315                           ;./RTC.h: 31:     datoR = (datoR * 10) + (dato & 0x0F);
  2316  01B1  300F               	movlw	15
  2317  01B2  0577               	andwf	convertirDato@dato,w
  2318  01B3  00F4               	movwf	??_convertirDato
  2319  01B4  300A               	movlw	10
  2320  01B5  00F5               	movwf	??_convertirDato+1
  2321  01B6  0875               	movf	??_convertirDato+1,w
  2322  01B7  00F0               	movwf	___bmul@multiplicand
  2323  01B8  0878               	movf	convertirDato@datoR,w
  2324  01B9  120A  118A  20D8  120A  118A  	fcall	___bmul
  2325  01BE  0774               	addwf	??_convertirDato,w
  2326  01BF  00F6               	movwf	??_convertirDato+2
  2327  01C0  0876               	movf	??_convertirDato+2,w
  2328  01C1  00F8               	movwf	convertirDato@datoR
  2329  01C2                     l1671:	
  2330                           
  2331                           ;./RTC.h: 32:     return datoR;
  2332  01C2  0878               	movf	convertirDato@datoR,w
  2333  01C3                     l77:	
  2334  01C3  0008               	return
  2335  01C4                     __end_of_convertirDato:	
  2336                           
  2337                           	psect	text11
  2338  0257                     __ptext11:	
  2339 ;; *************** function ___awmod *****************
  2340 ;; Defined at:
  2341 ;;		line 5 in file "C:\Program Files (x86)\Microchip\xc8\v2.10\pic\sources\c90\common\awmod.c"
  2342 ;; Parameters:    Size  Location     Type
  2343 ;;  divisor         2    9[COMMON] int 
  2344 ;;  dividend        2   11[COMMON] int 
  2345 ;; Auto vars:     Size  Location     Type
  2346 ;;  sign            1    1[BANK0 ] unsigned char 
  2347 ;;  counter         1    0[BANK0 ] unsigned char 
  2348 ;; Return value:  Size  Location     Type
  2349 ;;                  2    9[COMMON] int 
  2350 ;; Registers used:
  2351 ;;		wreg, status,2, status,0
  2352 ;; Tracked objects:
  2353 ;;		On entry : 0/0
  2354 ;;		On exit  : 0/0
  2355 ;;		Unchanged: 0/0
  2356 ;; Data sizes:     COMMON   BANK0   BANK1   BANK3   BANK2
  2357 ;;      Params:         4       0       0       0       0
  2358 ;;      Locals:         0       2       0       0       0
  2359 ;;      Temps:          1       0       0       0       0
  2360 ;;      Totals:         5       2       0       0       0
  2361 ;;Total ram usage:        7 bytes
  2362 ;; Hardware stack levels used:    1
  2363 ;; This function calls:
  2364 ;;		Nothing
  2365 ;; This function is called by:
  2366 ;;		_dameTemperatura
  2367 ;;		_dameHoraActual
  2368 ;; This function uses a non-reentrant model
  2369 ;;
  2370                           
  2371                           
  2372                           ;psect for function ___awmod
  2373  0257                     ___awmod:	
  2374  0257                     l1807:	
  2375                           ;incstack = 0
  2376                           ; Regs used in ___awmod: [wreg+status,2+status,0]
  2377                           
  2378  0257  1283               	bcf	3,5	;RP0=0, select bank0
  2379  0258  1303               	bcf	3,6	;RP1=0, select bank0
  2380  0259  01AD               	clrf	___awmod@sign
  2381  025A                     l1809:	
  2382  025A  1FFC               	btfss	___awmod@dividend+1,7
  2383  025B  2A5D               	goto	u1251
  2384  025C  2A5E               	goto	u1250
  2385  025D                     u1251:	
  2386  025D  2A65               	goto	l1815
  2387  025E                     u1250:	
  2388  025E                     l1811:	
  2389  025E  09FB               	comf	___awmod@dividend,f
  2390  025F  09FC               	comf	___awmod@dividend+1,f
  2391  0260  0AFB               	incf	___awmod@dividend,f
  2392  0261  1903               	skipnz
  2393  0262  0AFC               	incf	___awmod@dividend+1,f
  2394  0263                     l1813:	
  2395  0263  01AD               	clrf	___awmod@sign
  2396  0264  0AAD               	incf	___awmod@sign,f
  2397  0265                     l1815:	
  2398  0265  1FFA               	btfss	___awmod@divisor+1,7
  2399  0266  2A68               	goto	u1261
  2400  0267  2A69               	goto	u1260
  2401  0268                     u1261:	
  2402  0268  2A6E               	goto	l1819
  2403  0269                     u1260:	
  2404  0269                     l1817:	
  2405  0269  09F9               	comf	___awmod@divisor,f
  2406  026A  09FA               	comf	___awmod@divisor+1,f
  2407  026B  0AF9               	incf	___awmod@divisor,f
  2408  026C  1903               	skipnz
  2409  026D  0AFA               	incf	___awmod@divisor+1,f
  2410  026E                     l1819:	
  2411  026E  0879               	movf	___awmod@divisor,w
  2412  026F  047A               	iorwf	___awmod@divisor+1,w
  2413  0270  1903               	btfsc	3,2
  2414  0271  2A73               	goto	u1271
  2415  0272  2A74               	goto	u1270
  2416  0273                     u1271:	
  2417  0273  2AA3               	goto	l1837
  2418  0274                     u1270:	
  2419  0274                     l1821:	
  2420  0274  01AC               	clrf	___awmod@counter
  2421  0275  0AAC               	incf	___awmod@counter,f
  2422  0276  2A82               	goto	l1827
  2423  0277                     l1823:	
  2424  0277  3001               	movlw	1
  2425  0278                     u1285:	
  2426  0278  1003               	clrc
  2427  0279  0DF9               	rlf	___awmod@divisor,f
  2428  027A  0DFA               	rlf	___awmod@divisor+1,f
  2429  027B  3EFF               	addlw	-1
  2430  027C  1D03               	skipz
  2431  027D  2A78               	goto	u1285
  2432  027E                     l1825:	
  2433  027E  3001               	movlw	1
  2434  027F  00FD               	movwf	??___awmod
  2435  0280  087D               	movf	??___awmod,w
  2436  0281  07AC               	addwf	___awmod@counter,f
  2437  0282                     l1827:	
  2438  0282  1FFA               	btfss	___awmod@divisor+1,7
  2439  0283  2A85               	goto	u1291
  2440  0284  2A86               	goto	u1290
  2441  0285                     u1291:	
  2442  0285  2A77               	goto	l1823
  2443  0286                     u1290:	
  2444  0286                     l1829:	
  2445  0286  087A               	movf	___awmod@divisor+1,w
  2446  0287  027C               	subwf	___awmod@dividend+1,w
  2447  0288  1D03               	skipz
  2448  0289  2A8C               	goto	u1305
  2449  028A  0879               	movf	___awmod@divisor,w
  2450  028B  027B               	subwf	___awmod@dividend,w
  2451  028C                     u1305:	
  2452  028C  1C03               	skipc
  2453  028D  2A8F               	goto	u1301
  2454  028E  2A90               	goto	u1300
  2455  028F                     u1301:	
  2456  028F  2A96               	goto	l1833
  2457  0290                     u1300:	
  2458  0290                     l1831:	
  2459  0290  0879               	movf	___awmod@divisor,w
  2460  0291  02FB               	subwf	___awmod@dividend,f
  2461  0292  087A               	movf	___awmod@divisor+1,w
  2462  0293  1C03               	skipc
  2463  0294  03FC               	decf	___awmod@dividend+1,f
  2464  0295  02FC               	subwf	___awmod@dividend+1,f
  2465  0296                     l1833:	
  2466  0296  3001               	movlw	1
  2467  0297                     u1315:	
  2468  0297  1003               	clrc
  2469  0298  0CFA               	rrf	___awmod@divisor+1,f
  2470  0299  0CF9               	rrf	___awmod@divisor,f
  2471  029A  3EFF               	addlw	-1
  2472  029B  1D03               	skipz
  2473  029C  2A97               	goto	u1315
  2474  029D                     l1835:	
  2475  029D  3001               	movlw	1
  2476  029E  02AC               	subwf	___awmod@counter,f
  2477  029F  1D03               	btfss	3,2
  2478  02A0  2AA2               	goto	u1321
  2479  02A1  2AA3               	goto	u1320
  2480  02A2                     u1321:	
  2481  02A2  2A86               	goto	l1829
  2482  02A3                     u1320:	
  2483  02A3                     l1837:	
  2484  02A3  082D               	movf	___awmod@sign,w
  2485  02A4  1903               	btfsc	3,2
  2486  02A5  2AA7               	goto	u1331
  2487  02A6  2AA8               	goto	u1330
  2488  02A7                     u1331:	
  2489  02A7  2AAD               	goto	l1841
  2490  02A8                     u1330:	
  2491  02A8                     l1839:	
  2492  02A8  09FB               	comf	___awmod@dividend,f
  2493  02A9  09FC               	comf	___awmod@dividend+1,f
  2494  02AA  0AFB               	incf	___awmod@dividend,f
  2495  02AB  1903               	skipnz
  2496  02AC  0AFC               	incf	___awmod@dividend+1,f
  2497  02AD                     l1841:	
  2498  02AD  087C               	movf	___awmod@dividend+1,w
  2499  02AE  00FA               	movwf	?___awmod+1
  2500  02AF  087B               	movf	___awmod@dividend,w
  2501  02B0  00F9               	movwf	?___awmod
  2502  02B1                     l545:	
  2503  02B1  0008               	return
  2504  02B2                     __end_of___awmod:	
  2505                           
  2506                           	psect	text12
  2507  0317                     __ptext12:	
  2508 ;; *************** function ___awdiv *****************
  2509 ;; Defined at:
  2510 ;;		line 5 in file "C:\Program Files (x86)\Microchip\xc8\v2.10\pic\sources\c90\common\awdiv.c"
  2511 ;; Parameters:    Size  Location     Type
  2512 ;;  divisor         2    0[COMMON] int 
  2513 ;;  dividend        2    2[COMMON] int 
  2514 ;; Auto vars:     Size  Location     Type
  2515 ;;  quotient        2    7[COMMON] int 
  2516 ;;  sign            1    6[COMMON] unsigned char 
  2517 ;;  counter         1    5[COMMON] unsigned char 
  2518 ;; Return value:  Size  Location     Type
  2519 ;;                  2    0[COMMON] int 
  2520 ;; Registers used:
  2521 ;;		wreg, status,2, status,0
  2522 ;; Tracked objects:
  2523 ;;		On entry : 0/0
  2524 ;;		On exit  : 0/0
  2525 ;;		Unchanged: 0/0
  2526 ;; Data sizes:     COMMON   BANK0   BANK1   BANK3   BANK2
  2527 ;;      Params:         4       0       0       0       0
  2528 ;;      Locals:         4       0       0       0       0
  2529 ;;      Temps:          1       0       0       0       0
  2530 ;;      Totals:         9       0       0       0       0
  2531 ;;Total ram usage:        9 bytes
  2532 ;; Hardware stack levels used:    1
  2533 ;; This function calls:
  2534 ;;		Nothing
  2535 ;; This function is called by:
  2536 ;;		_dameTemperatura
  2537 ;;		_dameHoraActual
  2538 ;; This function uses a non-reentrant model
  2539 ;;
  2540                           
  2541                           
  2542                           ;psect for function ___awdiv
  2543  0317                     ___awdiv:	
  2544  0317                     l1763:	
  2545                           ;incstack = 0
  2546                           ; Regs used in ___awdiv: [wreg+status,2+status,0]
  2547                           
  2548  0317  01F6               	clrf	___awdiv@sign
  2549  0318                     l1765:	
  2550  0318  1FF1               	btfss	___awdiv@divisor+1,7
  2551  0319  2B1B               	goto	u1151
  2552  031A  2B1C               	goto	u1150
  2553  031B                     u1151:	
  2554  031B  2B23               	goto	l1771
  2555  031C                     u1150:	
  2556  031C                     l1767:	
  2557  031C  09F0               	comf	___awdiv@divisor,f
  2558  031D  09F1               	comf	___awdiv@divisor+1,f
  2559  031E  0AF0               	incf	___awdiv@divisor,f
  2560  031F  1903               	skipnz
  2561  0320  0AF1               	incf	___awdiv@divisor+1,f
  2562  0321                     l1769:	
  2563  0321  01F6               	clrf	___awdiv@sign
  2564  0322  0AF6               	incf	___awdiv@sign,f
  2565  0323                     l1771:	
  2566  0323  1FF3               	btfss	___awdiv@dividend+1,7
  2567  0324  2B26               	goto	u1161
  2568  0325  2B27               	goto	u1160
  2569  0326                     u1161:	
  2570  0326  2B30               	goto	l1777
  2571  0327                     u1160:	
  2572  0327                     l1773:	
  2573  0327  09F2               	comf	___awdiv@dividend,f
  2574  0328  09F3               	comf	___awdiv@dividend+1,f
  2575  0329  0AF2               	incf	___awdiv@dividend,f
  2576  032A  1903               	skipnz
  2577  032B  0AF3               	incf	___awdiv@dividend+1,f
  2578  032C                     l1775:	
  2579  032C  3001               	movlw	1
  2580  032D  00F4               	movwf	??___awdiv
  2581  032E  0874               	movf	??___awdiv,w
  2582  032F  06F6               	xorwf	___awdiv@sign,f
  2583  0330                     l1777:	
  2584  0330  01F7               	clrf	___awdiv@quotient
  2585  0331  01F8               	clrf	___awdiv@quotient+1
  2586  0332                     l1779:	
  2587  0332  0870               	movf	___awdiv@divisor,w
  2588  0333  0471               	iorwf	___awdiv@divisor+1,w
  2589  0334  1903               	btfsc	3,2
  2590  0335  2B37               	goto	u1171
  2591  0336  2B38               	goto	u1170
  2592  0337                     u1171:	
  2593  0337  2B6F               	goto	l1799
  2594  0338                     u1170:	
  2595  0338                     l1781:	
  2596  0338  01F5               	clrf	___awdiv@counter
  2597  0339  0AF5               	incf	___awdiv@counter,f
  2598  033A  2B46               	goto	l1787
  2599  033B                     l1783:	
  2600  033B  3001               	movlw	1
  2601  033C                     u1185:	
  2602  033C  1003               	clrc
  2603  033D  0DF0               	rlf	___awdiv@divisor,f
  2604  033E  0DF1               	rlf	___awdiv@divisor+1,f
  2605  033F  3EFF               	addlw	-1
  2606  0340  1D03               	skipz
  2607  0341  2B3C               	goto	u1185
  2608  0342                     l1785:	
  2609  0342  3001               	movlw	1
  2610  0343  00F4               	movwf	??___awdiv
  2611  0344  0874               	movf	??___awdiv,w
  2612  0345  07F5               	addwf	___awdiv@counter,f
  2613  0346                     l1787:	
  2614  0346  1FF1               	btfss	___awdiv@divisor+1,7
  2615  0347  2B49               	goto	u1191
  2616  0348  2B4A               	goto	u1190
  2617  0349                     u1191:	
  2618  0349  2B3B               	goto	l1783
  2619  034A                     u1190:	
  2620  034A                     l1789:	
  2621  034A  3001               	movlw	1
  2622  034B                     u1205:	
  2623  034B  1003               	clrc
  2624  034C  0DF7               	rlf	___awdiv@quotient,f
  2625  034D  0DF8               	rlf	___awdiv@quotient+1,f
  2626  034E  3EFF               	addlw	-1
  2627  034F  1D03               	skipz
  2628  0350  2B4B               	goto	u1205
  2629  0351  0871               	movf	___awdiv@divisor+1,w
  2630  0352  0273               	subwf	___awdiv@dividend+1,w
  2631  0353  1D03               	skipz
  2632  0354  2B57               	goto	u1215
  2633  0355  0870               	movf	___awdiv@divisor,w
  2634  0356  0272               	subwf	___awdiv@dividend,w
  2635  0357                     u1215:	
  2636  0357  1C03               	skipc
  2637  0358  2B5A               	goto	u1211
  2638  0359  2B5B               	goto	u1210
  2639  035A                     u1211:	
  2640  035A  2B62               	goto	l1795
  2641  035B                     u1210:	
  2642  035B                     l1791:	
  2643  035B  0870               	movf	___awdiv@divisor,w
  2644  035C  02F2               	subwf	___awdiv@dividend,f
  2645  035D  0871               	movf	___awdiv@divisor+1,w
  2646  035E  1C03               	skipc
  2647  035F  03F3               	decf	___awdiv@dividend+1,f
  2648  0360  02F3               	subwf	___awdiv@dividend+1,f
  2649  0361                     l1793:	
  2650  0361  1477               	bsf	___awdiv@quotient,0
  2651  0362                     l1795:	
  2652  0362  3001               	movlw	1
  2653  0363                     u1225:	
  2654  0363  1003               	clrc
  2655  0364  0CF1               	rrf	___awdiv@divisor+1,f
  2656  0365  0CF0               	rrf	___awdiv@divisor,f
  2657  0366  3EFF               	addlw	-1
  2658  0367  1D03               	skipz
  2659  0368  2B63               	goto	u1225
  2660  0369                     l1797:	
  2661  0369  3001               	movlw	1
  2662  036A  02F5               	subwf	___awdiv@counter,f
  2663  036B  1D03               	btfss	3,2
  2664  036C  2B6E               	goto	u1231
  2665  036D  2B6F               	goto	u1230
  2666  036E                     u1231:	
  2667  036E  2B4A               	goto	l1789
  2668  036F                     u1230:	
  2669  036F                     l1799:	
  2670  036F  0876               	movf	___awdiv@sign,w
  2671  0370  1903               	btfsc	3,2
  2672  0371  2B73               	goto	u1241
  2673  0372  2B74               	goto	u1240
  2674  0373                     u1241:	
  2675  0373  2B79               	goto	l1803
  2676  0374                     u1240:	
  2677  0374                     l1801:	
  2678  0374  09F7               	comf	___awdiv@quotient,f
  2679  0375  09F8               	comf	___awdiv@quotient+1,f
  2680  0376  0AF7               	incf	___awdiv@quotient,f
  2681  0377  1903               	skipnz
  2682  0378  0AF8               	incf	___awdiv@quotient+1,f
  2683  0379                     l1803:	
  2684  0379  0878               	movf	___awdiv@quotient+1,w
  2685  037A  00F1               	movwf	?___awdiv+1
  2686  037B  0877               	movf	___awdiv@quotient,w
  2687  037C  00F0               	movwf	?___awdiv
  2688  037D                     l532:	
  2689  037D  0008               	return
  2690  037E                     __end_of___awdiv:	
  2691                           
  2692                           	psect	text13
  2693  050F                     __ptext13:	
  2694 ;; *************** function _convertirFormato *****************
  2695 ;; Defined at:
  2696 ;;		line 333 in file "main.c"
  2697 ;; Parameters:    Size  Location     Type
  2698 ;;		None
  2699 ;; Auto vars:     Size  Location     Type
  2700 ;;  numeroEvalua    1    6[COMMON] unsigned char 
  2701 ;; Return value:  Size  Location     Type
  2702 ;;                  1    wreg      void 
  2703 ;; Registers used:
  2704 ;;		wreg, fsr0l, fsr0h, status,2, status,0, pclath, cstack
  2705 ;; Tracked objects:
  2706 ;;		On entry : 0/0
  2707 ;;		On exit  : 0/0
  2708 ;;		Unchanged: 0/0
  2709 ;; Data sizes:     COMMON   BANK0   BANK1   BANK3   BANK2
  2710 ;;      Params:         0       0       0       0       0
  2711 ;;      Locals:         1       0       0       0       0
  2712 ;;      Temps:          2       0       0       0       0
  2713 ;;      Totals:         3       0       0       0       0
  2714 ;;Total ram usage:        3 bytes
  2715 ;; Hardware stack levels used:    1
  2716 ;; Hardware stack levels required when called:    1
  2717 ;; This function calls:
  2718 ;;		___bmul
  2719 ;; This function is called by:
  2720 ;;		_main
  2721 ;; This function uses a non-reentrant model
  2722 ;;
  2723                           
  2724                           
  2725                           ;psect for function _convertirFormato
  2726  050F                     _convertirFormato:	
  2727  050F                     l2041:	
  2728                           ;incstack = 0
  2729                           ; Regs used in _convertirFormato: [wreg-fsr0h+status,2+status,0+pclath+cstack]
  2730                           
  2731                           
  2732                           ;main.c: 334:     unsigned char numeroEvaluar = (contDecHora * 10) + contHora;
  2733  050F  300A               	movlw	10
  2734  0510  00F4               	movwf	??_convertirFormato
  2735  0511  0874               	movf	??_convertirFormato,w
  2736  0512  00F0               	movwf	___bmul@multiplicand
  2737  0513  1283               	bcf	3,5	;RP0=0, select bank0
  2738  0514  1303               	bcf	3,6	;RP1=0, select bank0
  2739  0515  082B               	movf	_contDecHora,w
  2740  0516  120A  118A  20D8  120A  118A  	fcall	___bmul
  2741  051B  1283               	bcf	3,5	;RP0=0, select bank0
  2742  051C  1303               	bcf	3,6	;RP1=0, select bank0
  2743  051D  072A               	addwf	_contHora,w
  2744  051E  00F5               	movwf	??_convertirFormato+1
  2745  051F  0875               	movf	??_convertirFormato+1,w
  2746  0520  00F6               	movwf	convertirFormato@numeroEvaluar
  2747                           
  2748                           ;main.c: 335:     switch (numeroEvaluar) {
  2749  0521  2D62               	goto	l2125
  2750  0522                     l232:	
  2751                           ;main.c: 336:         case 0:
  2752                           
  2753                           
  2754                           ;main.c: 337:             contDecHoraAux = 1;
  2755  0522  01C0               	clrf	_contDecHoraAux
  2756  0523  0AC0               	incf	_contDecHoraAux,f
  2757  0524                     l2043:	
  2758                           
  2759                           ;main.c: 338:             contHoraAux = 2;
  2760  0524  3002               	movlw	2
  2761  0525  00F4               	movwf	??_convertirFormato
  2762  0526  0874               	movf	??_convertirFormato,w
  2763  0527  00BF               	movwf	_contHoraAux
  2764                           
  2765                           ;main.c: 339:             break;
  2766  0528  2DB4               	goto	l2127
  2767  0529                     l2045:	
  2768                           
  2769                           ;main.c: 342:             contDecHoraAux = 0;
  2770  0529  01C0               	clrf	_contDecHoraAux
  2771  052A                     l2047:	
  2772                           
  2773                           ;main.c: 343:             contHoraAux = 1;
  2774  052A  01BF               	clrf	_contHoraAux
  2775  052B  0ABF               	incf	_contHoraAux,f
  2776                           
  2777                           ;main.c: 344:             break;
  2778  052C  2DB4               	goto	l2127
  2779  052D                     l2049:	
  2780                           
  2781                           ;main.c: 347:             contDecHoraAux = 0;
  2782  052D  01C0               	clrf	_contDecHoraAux
  2783  052E  2D24               	goto	l2043
  2784  052F                     l2053:	
  2785                           
  2786                           ;main.c: 352:             contDecHoraAux = 0;
  2787  052F  01C0               	clrf	_contDecHoraAux
  2788  0530                     l2055:	
  2789                           
  2790                           ;main.c: 353:             contHoraAux = 3;
  2791  0530  3003               	movlw	3
  2792  0531  00F4               	movwf	??_convertirFormato
  2793  0532  0874               	movf	??_convertirFormato,w
  2794  0533  00BF               	movwf	_contHoraAux
  2795                           
  2796                           ;main.c: 354:             break;
  2797  0534  2DB4               	goto	l2127
  2798  0535                     l2057:	
  2799                           
  2800                           ;main.c: 357:             contDecHoraAux = 0;
  2801  0535  01C0               	clrf	_contDecHoraAux
  2802  0536                     l2059:	
  2803                           
  2804                           ;main.c: 358:             contHoraAux = 4;
  2805  0536  3004               	movlw	4
  2806  0537  00F4               	movwf	??_convertirFormato
  2807  0538  0874               	movf	??_convertirFormato,w
  2808  0539  00BF               	movwf	_contHoraAux
  2809                           
  2810                           ;main.c: 359:             break;
  2811  053A  2DB4               	goto	l2127
  2812  053B                     l2061:	
  2813                           
  2814                           ;main.c: 362:             contDecHoraAux = 0;
  2815  053B  01C0               	clrf	_contDecHoraAux
  2816  053C                     l2063:	
  2817                           
  2818                           ;main.c: 363:             contHoraAux = 5;
  2819  053C  3005               	movlw	5
  2820  053D  00F4               	movwf	??_convertirFormato
  2821  053E  0874               	movf	??_convertirFormato,w
  2822  053F  00BF               	movwf	_contHoraAux
  2823                           
  2824                           ;main.c: 364:             break;
  2825  0540  2DB4               	goto	l2127
  2826  0541                     l2065:	
  2827                           
  2828                           ;main.c: 367:             contDecHoraAux = 0;
  2829  0541  01C0               	clrf	_contDecHoraAux
  2830  0542                     l2067:	
  2831                           
  2832                           ;main.c: 368:             contHoraAux = 6;
  2833  0542  3006               	movlw	6
  2834  0543  00F4               	movwf	??_convertirFormato
  2835  0544  0874               	movf	??_convertirFormato,w
  2836  0545  00BF               	movwf	_contHoraAux
  2837                           
  2838                           ;main.c: 369:             break;
  2839  0546  2DB4               	goto	l2127
  2840  0547                     l2069:	
  2841                           
  2842                           ;main.c: 372:             contDecHoraAux = 0;
  2843  0547  01C0               	clrf	_contDecHoraAux
  2844  0548                     l2071:	
  2845                           
  2846                           ;main.c: 373:             contHoraAux = 7;
  2847  0548  3007               	movlw	7
  2848  0549  00F4               	movwf	??_convertirFormato
  2849  054A  0874               	movf	??_convertirFormato,w
  2850  054B  00BF               	movwf	_contHoraAux
  2851                           
  2852                           ;main.c: 374:             break;
  2853  054C  2DB4               	goto	l2127
  2854  054D                     l2073:	
  2855                           
  2856                           ;main.c: 377:             contDecHoraAux = 0;
  2857  054D  01C0               	clrf	_contDecHoraAux
  2858  054E                     l2075:	
  2859                           
  2860                           ;main.c: 378:             contHoraAux = 8;
  2861  054E  3008               	movlw	8
  2862  054F  00F4               	movwf	??_convertirFormato
  2863  0550  0874               	movf	??_convertirFormato,w
  2864  0551  00BF               	movwf	_contHoraAux
  2865                           
  2866                           ;main.c: 379:             break;
  2867  0552  2DB4               	goto	l2127
  2868  0553                     l2077:	
  2869                           
  2870                           ;main.c: 382:             contDecHoraAux = 0;
  2871  0553  01C0               	clrf	_contDecHoraAux
  2872  0554                     l2079:	
  2873                           
  2874                           ;main.c: 383:             contHoraAux = 9;
  2875  0554  3009               	movlw	9
  2876  0555  00F4               	movwf	??_convertirFormato
  2877  0556  0874               	movf	??_convertirFormato,w
  2878  0557  00BF               	movwf	_contHoraAux
  2879                           
  2880                           ;main.c: 384:             break;
  2881  0558  2DB4               	goto	l2127
  2882  0559                     l243:	
  2883                           ;main.c: 386:         case 10:
  2884                           
  2885                           
  2886                           ;main.c: 387:             contDecHoraAux = 1;
  2887  0559  01C0               	clrf	_contDecHoraAux
  2888  055A  0AC0               	incf	_contDecHoraAux,f
  2889  055B                     l2081:	
  2890                           
  2891                           ;main.c: 388:             contHoraAux = 0;
  2892  055B  01BF               	clrf	_contHoraAux
  2893                           
  2894                           ;main.c: 389:             break;
  2895  055C  2DB4               	goto	l2127
  2896  055D                     l244:	
  2897                           ;main.c: 391:         case 11:
  2898                           
  2899                           
  2900                           ;main.c: 392:             contDecHoraAux = 1;
  2901  055D  01C0               	clrf	_contDecHoraAux
  2902  055E  0AC0               	incf	_contDecHoraAux,f
  2903                           
  2904                           ;main.c: 393:             contHoraAux = 1;
  2905  055F  01BF               	clrf	_contHoraAux
  2906  0560  0ABF               	incf	_contHoraAux,f
  2907                           
  2908                           ;main.c: 394:             break;
  2909  0561  2DB4               	goto	l2127
  2910  0562                     l2125:	
  2911  0562  0876               	movf	convertirFormato@numeroEvaluar,w
  2912  0563  00F4               	movwf	??_convertirFormato
  2913  0564  01F5               	clrf	??_convertirFormato+1
  2914                           
  2915                           ; Switch on 2 bytes has been partitioned into a top level switch of size 1, and 1 sub-sw
      +                          itches
  2916                           ; Switch size 1, requested type "simple"
  2917                           ; Number of cases is 1, Range of values is 0 to 0
  2918                           ; switch strategies available:
  2919                           ; Name         Instructions Cycles
  2920                           ; simple_byte            4     3 (average)
  2921                           ; direct_byte           11     8 (fixed)
  2922                           ; jumptable            260     6 (fixed)
  2923                           ;	Chosen strategy is simple_byte
  2924  0565  0875               	movf	??_convertirFormato+1,w
  2925  0566  3A00               	xorlw	0	; case 0
  2926  0567  1903               	skipnz
  2927  0568  2D6A               	goto	l2321
  2928  0569  2DB4               	goto	l2127
  2929  056A                     l2321:	
  2930                           
  2931                           ; Switch size 1, requested type "simple"
  2932                           ; Number of cases is 24, Range of values is 0 to 23
  2933                           ; switch strategies available:
  2934                           ; Name         Instructions Cycles
  2935                           ; simple_byte           73    37 (average)
  2936                           ; direct_byte           80     8 (fixed)
  2937                           ; jumptable            260     6 (fixed)
  2938                           ;	Chosen strategy is simple_byte
  2939  056A  0874               	movf	??_convertirFormato,w
  2940  056B  3A00               	xorlw	0	; case 0
  2941  056C  1903               	skipnz
  2942  056D  2D22               	goto	l232
  2943  056E  3A01               	xorlw	1	; case 1
  2944  056F  1903               	skipnz
  2945  0570  2D29               	goto	l2045
  2946  0571  3A03               	xorlw	3	; case 2
  2947  0572  1903               	skipnz
  2948  0573  2D2D               	goto	l2049
  2949  0574  3A01               	xorlw	1	; case 3
  2950  0575  1903               	skipnz
  2951  0576  2D2F               	goto	l2053
  2952  0577  3A07               	xorlw	7	; case 4
  2953  0578  1903               	skipnz
  2954  0579  2D35               	goto	l2057
  2955  057A  3A01               	xorlw	1	; case 5
  2956  057B  1903               	skipnz
  2957  057C  2D3B               	goto	l2061
  2958  057D  3A03               	xorlw	3	; case 6
  2959  057E  1903               	skipnz
  2960  057F  2D41               	goto	l2065
  2961  0580  3A01               	xorlw	1	; case 7
  2962  0581  1903               	skipnz
  2963  0582  2D47               	goto	l2069
  2964  0583  3A0F               	xorlw	15	; case 8
  2965  0584  1903               	skipnz
  2966  0585  2D4D               	goto	l2073
  2967  0586  3A01               	xorlw	1	; case 9
  2968  0587  1903               	skipnz
  2969  0588  2D53               	goto	l2077
  2970  0589  3A03               	xorlw	3	; case 10
  2971  058A  1903               	skipnz
  2972  058B  2D59               	goto	l243
  2973  058C  3A01               	xorlw	1	; case 11
  2974  058D  1903               	skipnz
  2975  058E  2D5D               	goto	l244
  2976  058F  3A07               	xorlw	7	; case 12
  2977  0590  1903               	skipnz
  2978  0591  2D22               	goto	l232
  2979  0592  3A01               	xorlw	1	; case 13
  2980  0593  1903               	skipnz
  2981  0594  2D29               	goto	l2045
  2982  0595  3A03               	xorlw	3	; case 14
  2983  0596  1903               	skipnz
  2984  0597  2D2D               	goto	l2049
  2985  0598  3A01               	xorlw	1	; case 15
  2986  0599  1903               	skipnz
  2987  059A  2D2F               	goto	l2053
  2988  059B  3A1F               	xorlw	31	; case 16
  2989  059C  1903               	skipnz
  2990  059D  2D35               	goto	l2057
  2991  059E  3A01               	xorlw	1	; case 17
  2992  059F  1903               	skipnz
  2993  05A0  2D3B               	goto	l2061
  2994  05A1  3A03               	xorlw	3	; case 18
  2995  05A2  1903               	skipnz
  2996  05A3  2D41               	goto	l2065
  2997  05A4  3A01               	xorlw	1	; case 19
  2998  05A5  1903               	skipnz
  2999  05A6  2D47               	goto	l2069
  3000  05A7  3A07               	xorlw	7	; case 20
  3001  05A8  1903               	skipnz
  3002  05A9  2D4D               	goto	l2073
  3003  05AA  3A01               	xorlw	1	; case 21
  3004  05AB  1903               	skipnz
  3005  05AC  2D53               	goto	l2077
  3006  05AD  3A03               	xorlw	3	; case 22
  3007  05AE  1903               	skipnz
  3008  05AF  2D59               	goto	l243
  3009  05B0  3A01               	xorlw	1	; case 23
  3010  05B1  1903               	skipnz
  3011  05B2  2D5D               	goto	l244
  3012  05B3  2DB4               	goto	l2127
  3013  05B4                     l2127:	
  3014                           
  3015                           ;main.c: 458:     contDecHoraMostrar = &contDecHoraAux;
  3016  05B4  3040               	movlw	(low (_contDecHoraAux| 0))& (0+255)
  3017  05B5  00F4               	movwf	??_convertirFormato
  3018  05B6  0874               	movf	??_convertirFormato,w
  3019  05B7  00C4               	movwf	_contDecHoraMostrar
  3020                           
  3021                           ;main.c: 459:     contHoraMostrar = &contHoraAux;
  3022  05B8  303F               	movlw	(low (_contHoraAux| 0))& (0+255)
  3023  05B9  00F4               	movwf	??_convertirFormato
  3024  05BA  0874               	movf	??_convertirFormato,w
  3025  05BB  00C3               	movwf	_contHoraMostrar
  3026  05BC                     l257:	
  3027  05BC  0008               	return
  3028  05BD                     __end_of_convertirFormato:	
  3029                           
  3030                           	psect	text14
  3031  00D8                     __ptext14:	
  3032 ;; *************** function ___bmul *****************
  3033 ;; Defined at:
  3034 ;;		line 4 in file "C:\Program Files (x86)\Microchip\xc8\v2.10\pic\sources\c90\common\Umul8.c"
  3035 ;; Parameters:    Size  Location     Type
  3036 ;;  multiplier      1    wreg     unsigned char 
  3037 ;;  multiplicand    1    0[COMMON] unsigned char 
  3038 ;; Auto vars:     Size  Location     Type
  3039 ;;  multiplier      1    3[COMMON] unsigned char 
  3040 ;;  product         1    2[COMMON] unsigned char 
  3041 ;; Return value:  Size  Location     Type
  3042 ;;                  1    wreg      unsigned char 
  3043 ;; Registers used:
  3044 ;;		wreg, status,2, status,0
  3045 ;; Tracked objects:
  3046 ;;		On entry : 0/0
  3047 ;;		On exit  : 0/0
  3048 ;;		Unchanged: 0/0
  3049 ;; Data sizes:     COMMON   BANK0   BANK1   BANK3   BANK2
  3050 ;;      Params:         1       0       0       0       0
  3051 ;;      Locals:         2       0       0       0       0
  3052 ;;      Temps:          1       0       0       0       0
  3053 ;;      Totals:         4       0       0       0       0
  3054 ;;Total ram usage:        4 bytes
  3055 ;; Hardware stack levels used:    1
  3056 ;; This function calls:
  3057 ;;		Nothing
  3058 ;; This function is called by:
  3059 ;;		_convertirDato
  3060 ;;		_convertirFormato
  3061 ;; This function uses a non-reentrant model
  3062 ;;
  3063                           
  3064                           
  3065                           ;psect for function ___bmul
  3066  00D8                     ___bmul:	
  3067                           
  3068                           ;incstack = 0
  3069                           ; Regs used in ___bmul: [wreg+status,2+status,0]
  3070                           ;___bmul@multiplier stored from wreg
  3071  00D8  00F3               	movwf	___bmul@multiplier
  3072  00D9                     l1645:	
  3073  00D9  01F2               	clrf	___bmul@product
  3074  00DA                     l1647:	
  3075  00DA  1C73               	btfss	___bmul@multiplier,0
  3076  00DB  28DD               	goto	u881
  3077  00DC  28DE               	goto	u880
  3078  00DD                     u881:	
  3079  00DD  28E2               	goto	l1651
  3080  00DE                     u880:	
  3081  00DE                     l1649:	
  3082  00DE  0870               	movf	___bmul@multiplicand,w
  3083  00DF  00F1               	movwf	??___bmul
  3084  00E0  0871               	movf	??___bmul,w
  3085  00E1  07F2               	addwf	___bmul@product,f
  3086  00E2                     l1651:	
  3087  00E2  1003               	clrc
  3088  00E3  0DF0               	rlf	___bmul@multiplicand,f
  3089  00E4                     l1653:	
  3090  00E4  1003               	clrc
  3091  00E5  0CF3               	rrf	___bmul@multiplier,f
  3092  00E6  0873               	movf	___bmul@multiplier,w
  3093  00E7  1D03               	btfss	3,2
  3094  00E8  28EA               	goto	u891
  3095  00E9  28EB               	goto	u890
  3096  00EA                     u891:	
  3097  00EA  28DA               	goto	l1647
  3098  00EB                     u890:	
  3099  00EB                     l1655:	
  3100  00EB  0872               	movf	___bmul@product,w
  3101  00EC                     l405:	
  3102  00EC  0008               	return
  3103  00ED                     __end_of___bmul:	
  3104                           
  3105                           	psect	text15
  3106  0726                     __ptext15:	
  3107 ;; *************** function _controlBotones *****************
  3108 ;; Defined at:
  3109 ;;		line 152 in file "main.c"
  3110 ;; Parameters:    Size  Location     Type
  3111 ;;		None
  3112 ;; Auto vars:     Size  Location     Type
  3113 ;;		None
  3114 ;; Return value:  Size  Location     Type
  3115 ;;                  1    wreg      void 
  3116 ;; Registers used:
  3117 ;;		wreg, fsr0l, fsr0h, status,2, status,0, pclath, cstack
  3118 ;; Tracked objects:
  3119 ;;		On entry : 0/0
  3120 ;;		On exit  : 0/0
  3121 ;;		Unchanged: 0/0
  3122 ;; Data sizes:     COMMON   BANK0   BANK1   BANK3   BANK2
  3123 ;;      Params:         0       0       0       0       0
  3124 ;;      Locals:         0       0       0       0       0
  3125 ;;      Temps:          2       0       0       0       0
  3126 ;;      Totals:         2       0       0       0       0
  3127 ;;Total ram usage:        2 bytes
  3128 ;; Hardware stack levels used:    1
  3129 ;; Hardware stack levels required when called:    4
  3130 ;; This function calls:
  3131 ;;		_antiRebote
  3132 ;;		_setRtcHora
  3133 ;;		_setRtcMinutos
  3134 ;;		_validaDecenasMinutos
  3135 ;;		_validaHoras
  3136 ;;		_validaMinutos
  3137 ;; This function is called by:
  3138 ;;		_main
  3139 ;; This function uses a non-reentrant model
  3140 ;;
  3141                           
  3142                           
  3143                           ;psect for function _controlBotones
  3144  0726                     _controlBotones:	
  3145  0726                     l1891:	
  3146                           ;incstack = 0
  3147                           ; Regs used in _controlBotones: [wreg-fsr0h+status,2+status,0+pclath+cstack]
  3148                           
  3149                           
  3150                           ;main.c: 154:     if (contadorBotonTemp == 2) {
  3151  0726  3002               	movlw	2
  3152  0727  1283               	bcf	3,5	;RP0=0, select bank0
  3153  0728  1303               	bcf	3,6	;RP1=0, select bank0
  3154  0729  0638               	xorwf	_contadorBotonTemp,w
  3155  072A  0439               	iorwf	_contadorBotonTemp+1,w
  3156  072B  1D03               	btfss	3,2
  3157  072C  2F2E               	goto	u1381
  3158  072D  2F2F               	goto	u1380
  3159  072E                     u1381:	
  3160  072E  2F3C               	goto	l173
  3161  072F                     u1380:	
  3162  072F                     l1893:	
  3163                           
  3164                           ;main.c: 155:         antiRebote(0);
  3165  072F  3000               	movlw	0
  3166  0730  00F0               	movwf	antiRebote@pin
  3167  0731  00F1               	movwf	antiRebote@pin+1
  3168  0732  120A  118A  221B  120A  118A  	fcall	_antiRebote
  3169  0737                     l1895:	
  3170                           
  3171                           ;main.c: 156:         contadorBotonTemp = 0;
  3172  0737  1283               	bcf	3,5	;RP0=0, select bank0
  3173  0738  1303               	bcf	3,6	;RP1=0, select bank0
  3174  0739  01B8               	clrf	_contadorBotonTemp
  3175  073A  01B9               	clrf	_contadorBotonTemp+1
  3176                           
  3177                           ;main.c: 157:     } else {
  3178  073B  2FE2               	goto	l196
  3179  073C                     l173:	
  3180                           
  3181                           ;main.c: 159:         if (PORTBbits.RB0)
  3182  073C  1C06               	btfss	6,0	;volatile
  3183  073D  2F3F               	goto	u1391
  3184  073E  2F40               	goto	u1390
  3185  073F                     u1391:	
  3186  073F  2F7D               	goto	l175
  3187  0740                     u1390:	
  3188  0740                     l1897:	
  3189                           
  3190                           ;main.c: 160:         {;main.c: 162:             antiRebote(0);
  3191  0740  3000               	movlw	0
  3192  0741  00F0               	movwf	antiRebote@pin
  3193  0742  00F1               	movwf	antiRebote@pin+1
  3194  0743  120A  118A  221B  120A  118A  	fcall	_antiRebote
  3195  0748                     l1899:	
  3196                           
  3197                           ;main.c: 164:             contadorBotonSet++;
  3198  0748  3001               	movlw	1
  3199  0749  00F6               	movwf	??_controlBotones
  3200  074A  0876               	movf	??_controlBotones,w
  3201  074B  1283               	bcf	3,5	;RP0=0, select bank0
  3202  074C  1303               	bcf	3,6	;RP1=0, select bank0
  3203  074D  07BC               	addwf	_contadorBotonSet,f
  3204                           
  3205                           ;main.c: 166:             switch (contadorBotonSet) {
  3206  074E  2F6A               	goto	l1915
  3207  074F                     l1901:	
  3208                           
  3209                           ;main.c: 169:                     digitoActual = &contMin;
  3210  074F  3041               	movlw	(low (_contMin| 0))& (0+255)
  3211  0750  00F6               	movwf	??_controlBotones
  3212  0751  0876               	movf	??_controlBotones,w
  3213  0752  00BE               	movwf	_digitoActual
  3214                           
  3215                           ;main.c: 170:                     break;
  3216  0753  2FE2               	goto	l196
  3217  0754                     l1903:	
  3218                           
  3219                           ;main.c: 173:                     digitoActual = &contDecMin;
  3220  0754  3042               	movlw	(low (_contDecMin| 0))& (0+255)
  3221  0755  00F6               	movwf	??_controlBotones
  3222  0756  0876               	movf	??_controlBotones,w
  3223  0757  00BE               	movwf	_digitoActual
  3224                           
  3225                           ;main.c: 174:                     break;
  3226  0758  2FE2               	goto	l196
  3227  0759                     l1905:	
  3228                           
  3229                           ;main.c: 177:                     digitoActual = &contHora;
  3230  0759  302A               	movlw	(low (_contHora| 0))& (0+255)
  3231  075A  00F6               	movwf	??_controlBotones
  3232  075B  0876               	movf	??_controlBotones,w
  3233  075C  00BE               	movwf	_digitoActual
  3234                           
  3235                           ;main.c: 178:                     break;
  3236  075D  2FE2               	goto	l196
  3237  075E                     l1907:	
  3238                           
  3239                           ;main.c: 181:                     contadorBotonSet = 0;
  3240  075E  01BC               	clrf	_contadorBotonSet
  3241  075F                     l1909:	
  3242                           
  3243                           ;main.c: 182:                     setRtcHora();
  3244  075F  120A  118A  2163  120A  118A  	fcall	_setRtcHora
  3245  0764                     l1911:	
  3246                           
  3247                           ;main.c: 183:                     setRtcMinutos();
  3248  0764  120A  118A  2183  120A  118A  	fcall	_setRtcMinutos
  3249                           
  3250                           ;main.c: 184:                     break;
  3251  0769  2FE2               	goto	l196
  3252  076A                     l1915:	
  3253  076A  083C               	movf	_contadorBotonSet,w
  3254  076B  00F6               	movwf	??_controlBotones
  3255  076C  01F7               	clrf	??_controlBotones+1
  3256                           
  3257                           ; Switch on 2 bytes has been partitioned into a top level switch of size 1, and 1 sub-sw
      +                          itches
  3258                           ; Switch size 1, requested type "simple"
  3259                           ; Number of cases is 1, Range of values is 0 to 0
  3260                           ; switch strategies available:
  3261                           ; Name         Instructions Cycles
  3262                           ; simple_byte            4     3 (average)
  3263                           ; direct_byte           11     8 (fixed)
  3264                           ; jumptable            260     6 (fixed)
  3265                           ;	Chosen strategy is simple_byte
  3266  076D  0877               	movf	??_controlBotones+1,w
  3267  076E  3A00               	xorlw	0	; case 0
  3268  076F  1903               	skipnz
  3269  0770  2F72               	goto	l2323
  3270  0771  2F5E               	goto	l1907
  3271  0772                     l2323:	
  3272                           
  3273                           ; Switch size 1, requested type "simple"
  3274                           ; Number of cases is 3, Range of values is 1 to 3
  3275                           ; switch strategies available:
  3276                           ; Name         Instructions Cycles
  3277                           ; simple_byte           10     6 (average)
  3278                           ; direct_byte           20    11 (fixed)
  3279                           ; jumptable            263     9 (fixed)
  3280                           ;	Chosen strategy is simple_byte
  3281  0772  0876               	movf	??_controlBotones,w
  3282  0773  3A01               	xorlw	1	; case 1
  3283  0774  1903               	skipnz
  3284  0775  2F4F               	goto	l1901
  3285  0776  3A03               	xorlw	3	; case 2
  3286  0777  1903               	skipnz
  3287  0778  2F54               	goto	l1903
  3288  0779  3A01               	xorlw	1	; case 3
  3289  077A  1903               	skipnz
  3290  077B  2F59               	goto	l1905
  3291  077C  2F5E               	goto	l1907
  3292  077D                     l175:	
  3293  077D  1C86               	btfss	6,1	;volatile
  3294  077E  2F80               	goto	u1401
  3295  077F  2F81               	goto	u1400
  3296  0780                     u1401:	
  3297  0780  2FB9               	goto	l183
  3298  0781                     u1400:	
  3299  0781                     l1917:	
  3300                           
  3301                           ;main.c: 188:         {;main.c: 190:             antiRebote(1);
  3302  0781  3001               	movlw	1
  3303  0782  00F0               	movwf	antiRebote@pin
  3304  0783  3000               	movlw	0
  3305  0784  00F1               	movwf	antiRebote@pin+1
  3306  0785  120A  118A  221B  120A  118A  	fcall	_antiRebote
  3307  078A                     l1919:	
  3308                           
  3309                           ;main.c: 192:             (*digitoActual)++;
  3310  078A  3001               	movlw	1
  3311  078B  00F6               	movwf	??_controlBotones
  3312  078C  1283               	bcf	3,5	;RP0=0, select bank0
  3313  078D  1303               	bcf	3,6	;RP1=0, select bank0
  3314  078E  083E               	movf	_digitoActual,w
  3315  078F  0084               	movwf	4
  3316  0790  0876               	movf	??_controlBotones,w
  3317  0791  1383               	bcf	3,7	;select IRP bank0
  3318  0792  0780               	addwf	0,f
  3319                           
  3320                           ;main.c: 194:             switch (contadorBotonSet) {
  3321  0793  2FA6               	goto	l1929
  3322  0794                     l1921:	
  3323                           
  3324                           ;main.c: 196:                     validaMinutos();
  3325  0794  120A  118A  210A  120A  118A  	fcall	_validaMinutos
  3326                           
  3327                           ;main.c: 197:                     break;
  3328  0799  2FE2               	goto	l196
  3329  079A                     l1923:	
  3330                           
  3331                           ;main.c: 200:                     validaDecenasMinutos();
  3332  079A  120A  118A  20ED  120A  118A  	fcall	_validaDecenasMinutos
  3333                           
  3334                           ;main.c: 201:                     break;
  3335  079F  2FE2               	goto	l196
  3336  07A0                     l1925:	
  3337                           
  3338                           ;main.c: 204:                     validaHoras();
  3339  07A0  120A  118A  237E  120A  118A  	fcall	_validaHoras
  3340                           
  3341                           ;main.c: 205:                     break;
  3342  07A5  2FE2               	goto	l196
  3343  07A6                     l1929:	
  3344  07A6  083C               	movf	_contadorBotonSet,w
  3345  07A7  00F6               	movwf	??_controlBotones
  3346  07A8  01F7               	clrf	??_controlBotones+1
  3347                           
  3348                           ; Switch on 2 bytes has been partitioned into a top level switch of size 1, and 1 sub-sw
      +                          itches
  3349                           ; Switch size 1, requested type "simple"
  3350                           ; Number of cases is 1, Range of values is 0 to 0
  3351                           ; switch strategies available:
  3352                           ; Name         Instructions Cycles
  3353                           ; simple_byte            4     3 (average)
  3354                           ; direct_byte           11     8 (fixed)
  3355                           ; jumptable            260     6 (fixed)
  3356                           ;	Chosen strategy is simple_byte
  3357  07A9  0877               	movf	??_controlBotones+1,w
  3358  07AA  3A00               	xorlw	0	; case 0
  3359  07AB  1903               	skipnz
  3360  07AC  2FAE               	goto	l2325
  3361  07AD  2FE2               	goto	l196
  3362  07AE                     l2325:	
  3363                           
  3364                           ; Switch size 1, requested type "simple"
  3365                           ; Number of cases is 3, Range of values is 1 to 3
  3366                           ; switch strategies available:
  3367                           ; Name         Instructions Cycles
  3368                           ; simple_byte           10     6 (average)
  3369                           ; direct_byte           20    11 (fixed)
  3370                           ; jumptable            263     9 (fixed)
  3371                           ;	Chosen strategy is simple_byte
  3372  07AE  0876               	movf	??_controlBotones,w
  3373  07AF  3A01               	xorlw	1	; case 1
  3374  07B0  1903               	skipnz
  3375  07B1  2F94               	goto	l1921
  3376  07B2  3A03               	xorlw	3	; case 2
  3377  07B3  1903               	skipnz
  3378  07B4  2F9A               	goto	l1923
  3379  07B5  3A01               	xorlw	1	; case 3
  3380  07B6  1903               	skipnz
  3381  07B7  2FA0               	goto	l1925
  3382  07B8  2FE2               	goto	l196
  3383  07B9                     l183:	
  3384  07B9  1D06               	btfss	6,2	;volatile
  3385  07BA  2FBC               	goto	u1411
  3386  07BB  2FBD               	goto	u1410
  3387  07BC                     u1411:	
  3388  07BC  2FE2               	goto	l182
  3389  07BD                     u1410:	
  3390  07BD                     l1931:	
  3391                           
  3392                           ;main.c: 211:         {;main.c: 212:             antiRebote(2);
  3393  07BD  3002               	movlw	2
  3394  07BE  00F0               	movwf	antiRebote@pin
  3395  07BF  3000               	movlw	0
  3396  07C0  00F1               	movwf	antiRebote@pin+1
  3397  07C1  120A  118A  221B  120A  118A  	fcall	_antiRebote
  3398  07C6                     l1933:	
  3399                           
  3400                           ;main.c: 214:             (*digitoActual)--;
  3401  07C6  30FF               	movlw	255
  3402  07C7  00F6               	movwf	??_controlBotones
  3403  07C8  1283               	bcf	3,5	;RP0=0, select bank0
  3404  07C9  1303               	bcf	3,6	;RP1=0, select bank0
  3405  07CA  083E               	movf	_digitoActual,w
  3406  07CB  0084               	movwf	4
  3407  07CC  0876               	movf	??_controlBotones,w
  3408  07CD  1383               	bcf	3,7	;select IRP bank0
  3409  07CE  0780               	addwf	0,f
  3410  07CF                     l1943:	
  3411                           ;main.c: 216:             switch (contadorBotonSet) {
  3412                           
  3413  07CF  083C               	movf	_contadorBotonSet,w
  3414  07D0  00F6               	movwf	??_controlBotones
  3415  07D1  01F7               	clrf	??_controlBotones+1
  3416                           
  3417                           ; Switch on 2 bytes has been partitioned into a top level switch of size 1, and 1 sub-sw
      +                          itches
  3418                           ; Switch size 1, requested type "simple"
  3419                           ; Number of cases is 1, Range of values is 0 to 0
  3420                           ; switch strategies available:
  3421                           ; Name         Instructions Cycles
  3422                           ; simple_byte            4     3 (average)
  3423                           ; direct_byte           11     8 (fixed)
  3424                           ; jumptable            260     6 (fixed)
  3425                           ;	Chosen strategy is simple_byte
  3426  07D2  0877               	movf	??_controlBotones+1,w
  3427  07D3  3A00               	xorlw	0	; case 0
  3428  07D4  1903               	skipnz
  3429  07D5  2FD7               	goto	l2327
  3430  07D6  2FE2               	goto	l196
  3431  07D7                     l2327:	
  3432                           
  3433                           ; Switch size 1, requested type "simple"
  3434                           ; Number of cases is 3, Range of values is 1 to 3
  3435                           ; switch strategies available:
  3436                           ; Name         Instructions Cycles
  3437                           ; simple_byte           10     6 (average)
  3438                           ; direct_byte           20    11 (fixed)
  3439                           ; jumptable            263     9 (fixed)
  3440                           ;	Chosen strategy is simple_byte
  3441  07D7  0876               	movf	??_controlBotones,w
  3442  07D8  3A01               	xorlw	1	; case 1
  3443  07D9  1903               	skipnz
  3444  07DA  2F94               	goto	l1921
  3445  07DB  3A03               	xorlw	3	; case 2
  3446  07DC  1903               	skipnz
  3447  07DD  2F9A               	goto	l1923
  3448  07DE  3A01               	xorlw	1	; case 3
  3449  07DF  1903               	skipnz
  3450  07E0  2FA0               	goto	l1925
  3451  07E1  2FE2               	goto	l196
  3452  07E2                     l182:	
  3453  07E2                     l196:	
  3454  07E2  0008               	return
  3455  07E3                     __end_of_controlBotones:	
  3456                           
  3457                           	psect	text16
  3458  010A                     __ptext16:	
  3459 ;; *************** function _validaMinutos *****************
  3460 ;; Defined at:
  3461 ;;		line 74 in file "main.c"
  3462 ;; Parameters:    Size  Location     Type
  3463 ;;		None
  3464 ;; Auto vars:     Size  Location     Type
  3465 ;;		None
  3466 ;; Return value:  Size  Location     Type
  3467 ;;                  1    wreg      void 
  3468 ;; Registers used:
  3469 ;;		wreg, fsr0l, fsr0h, status,2, status,0
  3470 ;; Tracked objects:
  3471 ;;		On entry : 0/0
  3472 ;;		On exit  : 0/0
  3473 ;;		Unchanged: 0/0
  3474 ;; Data sizes:     COMMON   BANK0   BANK1   BANK3   BANK2
  3475 ;;      Params:         0       0       0       0       0
  3476 ;;      Locals:         0       0       0       0       0
  3477 ;;      Temps:          1       0       0       0       0
  3478 ;;      Totals:         1       0       0       0       0
  3479 ;;Total ram usage:        1 bytes
  3480 ;; Hardware stack levels used:    1
  3481 ;; This function calls:
  3482 ;;		Nothing
  3483 ;; This function is called by:
  3484 ;;		_controlBotones
  3485 ;; This function uses a non-reentrant model
  3486 ;;
  3487                           
  3488                           
  3489                           ;psect for function _validaMinutos
  3490  010A                     _validaMinutos:	
  3491  010A                     l1691:	
  3492                           ;incstack = 0
  3493                           ; Regs used in _validaMinutos: [wreg-fsr0h+status,2+status,0]
  3494                           
  3495                           
  3496                           ;main.c: 75:     if (*digitoActual == -1) {
  3497  010A  1283               	bcf	3,5	;RP0=0, select bank0
  3498  010B  1303               	bcf	3,6	;RP1=0, select bank0
  3499  010C  083E               	movf	_digitoActual,w
  3500  010D  0084               	movwf	4
  3501  010E  1383               	bcf	3,7	;select IRP bank0
  3502  010F  0A00               	incf	0,w
  3503  0110  1D03               	btfss	3,2
  3504  0111  2913               	goto	u971
  3505  0112  2914               	goto	u970
  3506  0113                     u971:	
  3507  0113  291B               	goto	l1695
  3508  0114                     u970:	
  3509  0114                     l1693:	
  3510                           
  3511                           ;main.c: 76:         *digitoActual = 9;
  3512  0114  3009               	movlw	9
  3513  0115  00F0               	movwf	??_validaMinutos
  3514  0116  083E               	movf	_digitoActual,w
  3515  0117  0084               	movwf	4
  3516  0118  0870               	movf	??_validaMinutos,w
  3517  0119  0080               	movwf	0
  3518                           
  3519                           ;main.c: 77:     } else if (*digitoActual == 10) {
  3520  011A  2926               	goto	l140
  3521  011B                     l1695:	
  3522  011B  083E               	movf	_digitoActual,w
  3523  011C  0084               	movwf	4
  3524  011D  300A               	movlw	10
  3525  011E  0600               	xorwf	0,w
  3526  011F  1D03               	btfss	3,2
  3527  0120  2922               	goto	u981
  3528  0121  2923               	goto	u980
  3529  0122                     u981:	
  3530  0122  2926               	goto	l140
  3531  0123                     u980:	
  3532  0123                     l1697:	
  3533                           
  3534                           ;main.c: 78:         *digitoActual = 0;
  3535  0123  083E               	movf	_digitoActual,w
  3536  0124  0084               	movwf	4
  3537  0125  0180               	clrf	0
  3538  0126                     l140:	
  3539  0126  0008               	return
  3540  0127                     __end_of_validaMinutos:	
  3541                           
  3542                           	psect	text17
  3543  037E                     __ptext17:	
  3544 ;; *************** function _validaHoras *****************
  3545 ;; Defined at:
  3546 ;;		line 90 in file "main.c"
  3547 ;; Parameters:    Size  Location     Type
  3548 ;;		None
  3549 ;; Auto vars:     Size  Location     Type
  3550 ;;		None
  3551 ;; Return value:  Size  Location     Type
  3552 ;;                  1    wreg      void 
  3553 ;; Registers used:
  3554 ;;		wreg, fsr0l, fsr0h, status,2, status,0
  3555 ;; Tracked objects:
  3556 ;;		On entry : 0/0
  3557 ;;		On exit  : 0/0
  3558 ;;		Unchanged: 0/0
  3559 ;; Data sizes:     COMMON   BANK0   BANK1   BANK3   BANK2
  3560 ;;      Params:         0       0       0       0       0
  3561 ;;      Locals:         0       0       0       0       0
  3562 ;;      Temps:          1       0       0       0       0
  3563 ;;      Totals:         1       0       0       0       0
  3564 ;;Total ram usage:        1 bytes
  3565 ;; Hardware stack levels used:    1
  3566 ;; This function calls:
  3567 ;;		Nothing
  3568 ;; This function is called by:
  3569 ;;		_controlBotones
  3570 ;; This function uses a non-reentrant model
  3571 ;;
  3572                           
  3573                           
  3574                           ;psect for function _validaHoras
  3575  037E                     _validaHoras:	
  3576  037E                     l1707:	
  3577                           ;incstack = 0
  3578                           ; Regs used in _validaHoras: [wreg-fsr0h+status,2+status,0]
  3579                           
  3580                           
  3581                           ;main.c: 91:     if (contDecHora == 1 && *digitoActual == -1) {
  3582  037E  1283               	bcf	3,5	;RP0=0, select bank0
  3583  037F  1303               	bcf	3,6	;RP1=0, select bank0
  3584  0380  032B               	decf	_contDecHora,w
  3585  0381  1D03               	btfss	3,2
  3586  0382  2B84               	goto	u1011
  3587  0383  2B85               	goto	u1010
  3588  0384                     u1011:	
  3589  0384  2B95               	goto	l1715
  3590  0385                     u1010:	
  3591  0385                     l1709:	
  3592  0385  083E               	movf	_digitoActual,w
  3593  0386  0084               	movwf	4
  3594  0387  1383               	bcf	3,7	;select IRP bank0
  3595  0388  0A00               	incf	0,w
  3596  0389  1D03               	btfss	3,2
  3597  038A  2B8C               	goto	u1021
  3598  038B  2B8D               	goto	u1020
  3599  038C                     u1021:	
  3600  038C  2B95               	goto	l1715
  3601  038D                     u1020:	
  3602  038D                     l1711:	
  3603                           
  3604                           ;main.c: 92:         contDecHora = 0;
  3605  038D  01AB               	clrf	_contDecHora
  3606  038E                     l1713:	
  3607                           
  3608                           ;main.c: 93:         *digitoActual = 9;
  3609  038E  3009               	movlw	9
  3610  038F  00F0               	movwf	??_validaHoras
  3611  0390  083E               	movf	_digitoActual,w
  3612  0391  0084               	movwf	4
  3613  0392  0870               	movf	??_validaHoras,w
  3614  0393  0080               	movwf	0
  3615                           
  3616                           ;main.c: 94:     } else if (contDecHora == 2 && *digitoActual == 4) {
  3617  0394  2BF6               	goto	l160
  3618  0395                     l1715:	
  3619  0395  3002               	movlw	2
  3620  0396  062B               	xorwf	_contDecHora,w
  3621  0397  1D03               	btfss	3,2
  3622  0398  2B9A               	goto	u1031
  3623  0399  2B9B               	goto	u1030
  3624  039A                     u1031:	
  3625  039A  2BA9               	goto	l1723
  3626  039B                     u1030:	
  3627  039B                     l1717:	
  3628  039B  083E               	movf	_digitoActual,w
  3629  039C  0084               	movwf	4
  3630  039D  3004               	movlw	4
  3631  039E  1383               	bcf	3,7	;select IRP bank0
  3632  039F  0600               	xorwf	0,w
  3633  03A0  1D03               	btfss	3,2
  3634  03A1  2BA3               	goto	u1041
  3635  03A2  2BA4               	goto	u1040
  3636  03A3                     u1041:	
  3637  03A3  2BA9               	goto	l1723
  3638  03A4                     u1040:	
  3639  03A4                     l1719:	
  3640                           
  3641                           ;main.c: 95:         contDecHora = 0;
  3642  03A4  01AB               	clrf	_contDecHora
  3643  03A5                     l1721:	
  3644                           
  3645                           ;main.c: 96:         *digitoActual = 0;
  3646  03A5  083E               	movf	_digitoActual,w
  3647  03A6  0084               	movwf	4
  3648  03A7  0180               	clrf	0
  3649                           
  3650                           ;main.c: 97:     } else if (contDecHora == 2 && *digitoActual == -1) {
  3651  03A8  2BF6               	goto	l160
  3652  03A9                     l1723:	
  3653  03A9  3002               	movlw	2
  3654  03AA  062B               	xorwf	_contDecHora,w
  3655  03AB  1D03               	btfss	3,2
  3656  03AC  2BAE               	goto	u1051
  3657  03AD  2BAF               	goto	u1050
  3658  03AE                     u1051:	
  3659  03AE  2BBA               	goto	l1731
  3660  03AF                     u1050:	
  3661  03AF                     l1725:	
  3662  03AF  083E               	movf	_digitoActual,w
  3663  03B0  0084               	movwf	4
  3664  03B1  1383               	bcf	3,7	;select IRP bank0
  3665  03B2  0A00               	incf	0,w
  3666  03B3  1D03               	btfss	3,2
  3667  03B4  2BB6               	goto	u1061
  3668  03B5  2BB7               	goto	u1060
  3669  03B6                     u1061:	
  3670  03B6  2BBA               	goto	l1731
  3671  03B7                     u1060:	
  3672  03B7                     l1727:	
  3673                           
  3674                           ;main.c: 98:         contDecHora = 1;
  3675  03B7  01AB               	clrf	_contDecHora
  3676  03B8  0AAB               	incf	_contDecHora,f
  3677  03B9  2B8E               	goto	l1713
  3678  03BA                     l1731:	
  3679  03BA  082B               	movf	_contDecHora,w
  3680  03BB  1D03               	btfss	3,2
  3681  03BC  2BBE               	goto	u1071
  3682  03BD  2BBF               	goto	u1070
  3683  03BE                     u1071:	
  3684  03BE  2BD2               	goto	l1739
  3685  03BF                     u1070:	
  3686  03BF                     l1733:	
  3687  03BF  083E               	movf	_digitoActual,w
  3688  03C0  0084               	movwf	4
  3689  03C1  1383               	bcf	3,7	;select IRP bank0
  3690  03C2  0A00               	incf	0,w
  3691  03C3  1D03               	btfss	3,2
  3692  03C4  2BC6               	goto	u1081
  3693  03C5  2BC7               	goto	u1080
  3694  03C6                     u1081:	
  3695  03C6  2BD2               	goto	l1739
  3696  03C7                     u1080:	
  3697  03C7                     l1735:	
  3698                           
  3699                           ;main.c: 101:         contDecHora = 2;
  3700  03C7  3002               	movlw	2
  3701  03C8  00F0               	movwf	??_validaHoras
  3702  03C9  0870               	movf	??_validaHoras,w
  3703  03CA  00AB               	movwf	_contDecHora
  3704  03CB                     l1737:	
  3705                           
  3706                           ;main.c: 102:         *digitoActual = 3;
  3707  03CB  3003               	movlw	3
  3708  03CC  00F0               	movwf	??_validaHoras
  3709  03CD  083E               	movf	_digitoActual,w
  3710  03CE  0084               	movwf	4
  3711  03CF  0870               	movf	??_validaHoras,w
  3712  03D0  0080               	movwf	0
  3713                           
  3714                           ;main.c: 103:     } else if (contDecHora == 1 && *digitoActual == 10) {
  3715  03D1  2BF6               	goto	l160
  3716  03D2                     l1739:	
  3717  03D2  032B               	decf	_contDecHora,w
  3718  03D3  1D03               	btfss	3,2
  3719  03D4  2BD6               	goto	u1091
  3720  03D5  2BD7               	goto	u1090
  3721  03D6                     u1091:	
  3722  03D6  2BE5               	goto	l1747
  3723  03D7                     u1090:	
  3724  03D7                     l1741:	
  3725  03D7  083E               	movf	_digitoActual,w
  3726  03D8  0084               	movwf	4
  3727  03D9  300A               	movlw	10
  3728  03DA  1383               	bcf	3,7	;select IRP bank0
  3729  03DB  0600               	xorwf	0,w
  3730  03DC  1D03               	btfss	3,2
  3731  03DD  2BDF               	goto	u1101
  3732  03DE  2BE0               	goto	u1100
  3733  03DF                     u1101:	
  3734  03DF  2BE5               	goto	l1747
  3735  03E0                     u1100:	
  3736  03E0                     l1743:	
  3737                           
  3738                           ;main.c: 104:         contDecHora = 2;
  3739  03E0  3002               	movlw	2
  3740  03E1  00F0               	movwf	??_validaHoras
  3741  03E2  0870               	movf	??_validaHoras,w
  3742  03E3  00AB               	movwf	_contDecHora
  3743  03E4  2BA5               	goto	l1721
  3744  03E5                     l1747:	
  3745  03E5  082B               	movf	_contDecHora,w
  3746  03E6  1D03               	btfss	3,2
  3747  03E7  2BE9               	goto	u1111
  3748  03E8  2BEA               	goto	u1110
  3749  03E9                     u1111:	
  3750  03E9  2BF6               	goto	l154
  3751  03EA                     u1110:	
  3752  03EA                     l1749:	
  3753  03EA  083E               	movf	_digitoActual,w
  3754  03EB  0084               	movwf	4
  3755  03EC  300A               	movlw	10
  3756  03ED  1383               	bcf	3,7	;select IRP bank0
  3757  03EE  0600               	xorwf	0,w
  3758  03EF  1D03               	btfss	3,2
  3759  03F0  2BF2               	goto	u1121
  3760  03F1  2BF3               	goto	u1120
  3761  03F2                     u1121:	
  3762  03F2  2BF6               	goto	l154
  3763  03F3                     u1120:	
  3764  03F3                     l1751:	
  3765                           
  3766                           ;main.c: 107:         contDecHora = 1;
  3767  03F3  01AB               	clrf	_contDecHora
  3768  03F4  0AAB               	incf	_contDecHora,f
  3769  03F5  2BA5               	goto	l1721
  3770  03F6                     l154:	
  3771  03F6                     l160:	
  3772  03F6  0008               	return
  3773  03F7                     __end_of_validaHoras:	
  3774                           
  3775                           	psect	text18
  3776  00ED                     __ptext18:	
  3777 ;; *************** function _validaDecenasMinutos *****************
  3778 ;; Defined at:
  3779 ;;		line 82 in file "main.c"
  3780 ;; Parameters:    Size  Location     Type
  3781 ;;		None
  3782 ;; Auto vars:     Size  Location     Type
  3783 ;;		None
  3784 ;; Return value:  Size  Location     Type
  3785 ;;                  1    wreg      void 
  3786 ;; Registers used:
  3787 ;;		wreg, fsr0l, fsr0h, status,2, status,0
  3788 ;; Tracked objects:
  3789 ;;		On entry : 0/0
  3790 ;;		On exit  : 0/0
  3791 ;;		Unchanged: 0/0
  3792 ;; Data sizes:     COMMON   BANK0   BANK1   BANK3   BANK2
  3793 ;;      Params:         0       0       0       0       0
  3794 ;;      Locals:         0       0       0       0       0
  3795 ;;      Temps:          1       0       0       0       0
  3796 ;;      Totals:         1       0       0       0       0
  3797 ;;Total ram usage:        1 bytes
  3798 ;; Hardware stack levels used:    1
  3799 ;; This function calls:
  3800 ;;		Nothing
  3801 ;; This function is called by:
  3802 ;;		_controlBotones
  3803 ;; This function uses a non-reentrant model
  3804 ;;
  3805                           
  3806                           
  3807                           ;psect for function _validaDecenasMinutos
  3808  00ED                     _validaDecenasMinutos:	
  3809  00ED                     l1699:	
  3810                           ;incstack = 0
  3811                           ; Regs used in _validaDecenasMinutos: [wreg-fsr0h+status,2+status,0]
  3812                           
  3813                           
  3814                           ;main.c: 83:     if (*digitoActual == -1) {
  3815  00ED  1283               	bcf	3,5	;RP0=0, select bank0
  3816  00EE  1303               	bcf	3,6	;RP1=0, select bank0
  3817  00EF  083E               	movf	_digitoActual,w
  3818  00F0  0084               	movwf	4
  3819  00F1  1383               	bcf	3,7	;select IRP bank0
  3820  00F2  0A00               	incf	0,w
  3821  00F3  1D03               	btfss	3,2
  3822  00F4  28F6               	goto	u991
  3823  00F5  28F7               	goto	u990
  3824  00F6                     u991:	
  3825  00F6  28FE               	goto	l1703
  3826  00F7                     u990:	
  3827  00F7                     l1701:	
  3828                           
  3829                           ;main.c: 84:         *digitoActual = 5;
  3830  00F7  3005               	movlw	5
  3831  00F8  00F0               	movwf	??_validaDecenasMinutos
  3832  00F9  083E               	movf	_digitoActual,w
  3833  00FA  0084               	movwf	4
  3834  00FB  0870               	movf	??_validaDecenasMinutos,w
  3835  00FC  0080               	movwf	0
  3836                           
  3837                           ;main.c: 85:     } else if (*digitoActual == 6) {
  3838  00FD  2909               	goto	l146
  3839  00FE                     l1703:	
  3840  00FE  083E               	movf	_digitoActual,w
  3841  00FF  0084               	movwf	4
  3842  0100  3006               	movlw	6
  3843  0101  0600               	xorwf	0,w
  3844  0102  1D03               	btfss	3,2
  3845  0103  2905               	goto	u1001
  3846  0104  2906               	goto	u1000
  3847  0105                     u1001:	
  3848  0105  2909               	goto	l146
  3849  0106                     u1000:	
  3850  0106                     l1705:	
  3851                           
  3852                           ;main.c: 86:         *digitoActual = 0;
  3853  0106  083E               	movf	_digitoActual,w
  3854  0107  0084               	movwf	4
  3855  0108  0180               	clrf	0
  3856  0109                     l146:	
  3857  0109  0008               	return
  3858  010A                     __end_of_validaDecenasMinutos:	
  3859                           
  3860                           	psect	text19
  3861  0183                     __ptext19:	
  3862 ;; *************** function _setRtcMinutos *****************
  3863 ;; Defined at:
  3864 ;;		line 498 in file "main.c"
  3865 ;; Parameters:    Size  Location     Type
  3866 ;;		None
  3867 ;; Auto vars:     Size  Location     Type
  3868 ;;  minutosRtc      1    5[COMMON] unsigned char 
  3869 ;; Return value:  Size  Location     Type
  3870 ;;                  1    wreg      void 
  3871 ;; Registers used:
  3872 ;;		wreg, status,2, status,0, pclath, cstack
  3873 ;; Tracked objects:
  3874 ;;		On entry : 0/0
  3875 ;;		On exit  : 0/0
  3876 ;;		Unchanged: 0/0
  3877 ;; Data sizes:     COMMON   BANK0   BANK1   BANK3   BANK2
  3878 ;;      Params:         0       0       0       0       0
  3879 ;;      Locals:         1       0       0       0       0
  3880 ;;      Temps:          2       0       0       0       0
  3881 ;;      Totals:         3       0       0       0       0
  3882 ;;Total ram usage:        3 bytes
  3883 ;; Hardware stack levels used:    1
  3884 ;; Hardware stack levels required when called:    3
  3885 ;; This function calls:
  3886 ;;		_escribe_rtc
  3887 ;; This function is called by:
  3888 ;;		_controlBotones
  3889 ;; This function uses a non-reentrant model
  3890 ;;
  3891                           
  3892                           
  3893                           ;psect for function _setRtcMinutos
  3894  0183                     _setRtcMinutos:	
  3895  0183                     l1759:	
  3896                           ;incstack = 0
  3897                           ; Regs used in _setRtcMinutos: [wreg+status,2+status,0+pclath+cstack]
  3898                           
  3899                           
  3900                           ;main.c: 499:     unsigned char minutosRtc;;main.c: 501:     minutosRtc = ((contDecMin) 
      +                          & 0x0F) << 4;
  3901  0183  1283               	bcf	3,5	;RP0=0, select bank0
  3902  0184  1303               	bcf	3,6	;RP1=0, select bank0
  3903  0185  0842               	movf	_contDecMin,w
  3904  0186  390F               	andlw	15
  3905  0187  00F3               	movwf	??_setRtcMinutos
  3906  0188  3003               	movlw	3
  3907  0189                     u1145:	
  3908  0189  1003               	clrc
  3909  018A  0DF3               	rlf	??_setRtcMinutos,f
  3910  018B  3EFF               	addlw	-1
  3911  018C  1D03               	skipz
  3912  018D  2989               	goto	u1145
  3913  018E  1003               	clrc
  3914  018F  0D73               	rlf	??_setRtcMinutos,w
  3915  0190  00F4               	movwf	??_setRtcMinutos+1
  3916  0191  0874               	movf	??_setRtcMinutos+1,w
  3917  0192  00F5               	movwf	setRtcMinutos@minutosRtc
  3918                           
  3919                           ;main.c: 502:     minutosRtc |= (contMin) & 0x0F;
  3920  0193  0841               	movf	_contMin,w
  3921  0194  390F               	andlw	15
  3922  0195  00F3               	movwf	??_setRtcMinutos
  3923  0196  0873               	movf	??_setRtcMinutos,w
  3924  0197  04F5               	iorwf	setRtcMinutos@minutosRtc,f
  3925  0198                     l1761:	
  3926                           
  3927                           ;main.c: 503:     escribe_rtc(0x01, minutosRtc);
  3928  0198  0875               	movf	setRtcMinutos@minutosRtc,w
  3929  0199  00F3               	movwf	??_setRtcMinutos
  3930  019A  0873               	movf	??_setRtcMinutos,w
  3931  019B  00F1               	movwf	escribe_rtc@dato
  3932  019C  3001               	movlw	1
  3933  019D  120A  118A  2127  120A  118A  	fcall	_escribe_rtc
  3934  01A2                     l269:	
  3935  01A2  0008               	return
  3936  01A3                     __end_of_setRtcMinutos:	
  3937                           
  3938                           	psect	text20
  3939  0163                     __ptext20:	
  3940 ;; *************** function _setRtcHora *****************
  3941 ;; Defined at:
  3942 ;;		line 488 in file "main.c"
  3943 ;; Parameters:    Size  Location     Type
  3944 ;;		None
  3945 ;; Auto vars:     Size  Location     Type
  3946 ;;  horaRtc         1    5[COMMON] unsigned char 
  3947 ;; Return value:  Size  Location     Type
  3948 ;;                  1    wreg      void 
  3949 ;; Registers used:
  3950 ;;		wreg, status,2, status,0, pclath, cstack
  3951 ;; Tracked objects:
  3952 ;;		On entry : 0/0
  3953 ;;		On exit  : 0/0
  3954 ;;		Unchanged: 0/0
  3955 ;; Data sizes:     COMMON   BANK0   BANK1   BANK3   BANK2
  3956 ;;      Params:         0       0       0       0       0
  3957 ;;      Locals:         1       0       0       0       0
  3958 ;;      Temps:          2       0       0       0       0
  3959 ;;      Totals:         3       0       0       0       0
  3960 ;;Total ram usage:        3 bytes
  3961 ;; Hardware stack levels used:    1
  3962 ;; Hardware stack levels required when called:    3
  3963 ;; This function calls:
  3964 ;;		_escribe_rtc
  3965 ;; This function is called by:
  3966 ;;		_controlBotones
  3967 ;; This function uses a non-reentrant model
  3968 ;;
  3969                           
  3970                           
  3971                           ;psect for function _setRtcHora
  3972  0163                     _setRtcHora:	
  3973  0163                     l1755:	
  3974                           ;incstack = 0
  3975                           ; Regs used in _setRtcHora: [wreg+status,2+status,0+pclath+cstack]
  3976                           
  3977                           
  3978                           ;main.c: 490:     unsigned char horaRtc;;main.c: 492:     horaRtc = ((contDecHora) & 0x0
      +                          F) << 4;
  3979  0163  1283               	bcf	3,5	;RP0=0, select bank0
  3980  0164  1303               	bcf	3,6	;RP1=0, select bank0
  3981  0165  082B               	movf	_contDecHora,w
  3982  0166  390F               	andlw	15
  3983  0167  00F3               	movwf	??_setRtcHora
  3984  0168  3003               	movlw	3
  3985  0169                     u1135:	
  3986  0169  1003               	clrc
  3987  016A  0DF3               	rlf	??_setRtcHora,f
  3988  016B  3EFF               	addlw	-1
  3989  016C  1D03               	skipz
  3990  016D  2969               	goto	u1135
  3991  016E  1003               	clrc
  3992  016F  0D73               	rlf	??_setRtcHora,w
  3993  0170  00F4               	movwf	??_setRtcHora+1
  3994  0171  0874               	movf	??_setRtcHora+1,w
  3995  0172  00F5               	movwf	setRtcHora@horaRtc
  3996                           
  3997                           ;main.c: 493:     horaRtc |= (contHora) & 0x0F;
  3998  0173  082A               	movf	_contHora,w
  3999  0174  390F               	andlw	15
  4000  0175  00F3               	movwf	??_setRtcHora
  4001  0176  0873               	movf	??_setRtcHora,w
  4002  0177  04F5               	iorwf	setRtcHora@horaRtc,f
  4003  0178                     l1757:	
  4004                           
  4005                           ;main.c: 494:     escribe_rtc(0x02, horaRtc);
  4006  0178  0875               	movf	setRtcHora@horaRtc,w
  4007  0179  00F3               	movwf	??_setRtcHora
  4008  017A  0873               	movf	??_setRtcHora,w
  4009  017B  00F1               	movwf	escribe_rtc@dato
  4010  017C  3002               	movlw	2
  4011  017D  120A  118A  2127  120A  118A  	fcall	_escribe_rtc
  4012  0182                     l266:	
  4013  0182  0008               	return
  4014  0183                     __end_of_setRtcHora:	
  4015                           
  4016                           	psect	text21
  4017  0127                     __ptext21:	
  4018 ;; *************** function _escribe_rtc *****************
  4019 ;; Defined at:
  4020 ;;		line 2 in file "./RTC.h"
  4021 ;; Parameters:    Size  Location     Type
  4022 ;;  direccion       1    wreg     unsigned char 
  4023 ;;  dato            1    1[COMMON] unsigned char 
  4024 ;; Auto vars:     Size  Location     Type
  4025 ;;  direccion       1    2[COMMON] unsigned char 
  4026 ;; Return value:  Size  Location     Type
  4027 ;;                  1    wreg      void 
  4028 ;; Registers used:
  4029 ;;		wreg, status,2, status,0, pclath, cstack
  4030 ;; Tracked objects:
  4031 ;;		On entry : 0/0
  4032 ;;		On exit  : 0/0
  4033 ;;		Unchanged: 0/0
  4034 ;; Data sizes:     COMMON   BANK0   BANK1   BANK3   BANK2
  4035 ;;      Params:         1       0       0       0       0
  4036 ;;      Locals:         1       0       0       0       0
  4037 ;;      Temps:          0       0       0       0       0
  4038 ;;      Totals:         2       0       0       0       0
  4039 ;;Total ram usage:        2 bytes
  4040 ;; Hardware stack levels used:    1
  4041 ;; Hardware stack levels required when called:    2
  4042 ;; This function calls:
  4043 ;;		_i2c_detener
  4044 ;;		_i2c_envia_dato
  4045 ;;		_i2c_inicia_com
  4046 ;; This function is called by:
  4047 ;;		_setRtcHora
  4048 ;;		_setRtcMinutos
  4049 ;;		_setRtcDefault
  4050 ;; This function uses a non-reentrant model
  4051 ;;
  4052                           
  4053                           
  4054                           ;psect for function _escribe_rtc
  4055  0127                     _escribe_rtc:	
  4056                           
  4057                           ;incstack = 0
  4058                           ; Regs used in _escribe_rtc: [wreg+status,2+status,0+pclath+cstack]
  4059                           ;escribe_rtc@direccion stored from wreg
  4060  0127  00F2               	movwf	escribe_rtc@direccion
  4061  0128                     l1643:	
  4062                           
  4063                           ;./RTC.h: 3:     i2c_inicia_com();
  4064  0128  120A  118A  207D  120A  118A  	fcall	_i2c_inicia_com
  4065                           
  4066                           ;./RTC.h: 4:     i2c_envia_dato(0xD0);
  4067  012D  30D0               	movlw	208
  4068  012E  120A  118A  208F  120A  118A  	fcall	_i2c_envia_dato
  4069                           
  4070                           ;./RTC.h: 5:     i2c_envia_dato(direccion);
  4071  0133  0872               	movf	escribe_rtc@direccion,w
  4072  0134  120A  118A  208F  120A  118A  	fcall	_i2c_envia_dato
  4073                           
  4074                           ;./RTC.h: 6:     i2c_envia_dato(dato);
  4075  0139  0871               	movf	escribe_rtc@dato,w
  4076  013A  120A  118A  208F  120A  118A  	fcall	_i2c_envia_dato
  4077                           
  4078                           ;./RTC.h: 7:     i2c_detener();
  4079  013F  120A  118A  2074  120A  118A  	fcall	_i2c_detener
  4080  0144                     l71:	
  4081  0144  0008               	return
  4082  0145                     __end_of_escribe_rtc:	
  4083                           
  4084                           	psect	text22
  4085  007D                     __ptext22:	
  4086 ;; *************** function _i2c_inicia_com *****************
  4087 ;; Defined at:
  4088 ;;		line 28 in file "./I2C.h"
  4089 ;; Parameters:    Size  Location     Type
  4090 ;;		None
  4091 ;; Auto vars:     Size  Location     Type
  4092 ;;		None
  4093 ;; Return value:  Size  Location     Type
  4094 ;;                  1    wreg      void 
  4095 ;; Registers used:
  4096 ;;		wreg, status,2, status,0, pclath, cstack
  4097 ;; Tracked objects:
  4098 ;;		On entry : 0/0
  4099 ;;		On exit  : 0/0
  4100 ;;		Unchanged: 0/0
  4101 ;; Data sizes:     COMMON   BANK0   BANK1   BANK3   BANK2
  4102 ;;      Params:         0       0       0       0       0
  4103 ;;      Locals:         0       0       0       0       0
  4104 ;;      Temps:          0       0       0       0       0
  4105 ;;      Totals:         0       0       0       0       0
  4106 ;;Total ram usage:        0 bytes
  4107 ;; Hardware stack levels used:    1
  4108 ;; Hardware stack levels required when called:    1
  4109 ;; This function calls:
  4110 ;;		_i2c_espera
  4111 ;; This function is called by:
  4112 ;;		_escribe_rtc
  4113 ;;		_leer_rtc
  4114 ;; This function uses a non-reentrant model
  4115 ;;
  4116                           
  4117                           
  4118                           ;psect for function _i2c_inicia_com
  4119  007D                     _i2c_inicia_com:	
  4120  007D                     l1609:	
  4121                           ;incstack = 0
  4122                           ; Regs used in _i2c_inicia_com: [wreg+status,2+status,0+pclath+cstack]
  4123                           
  4124                           
  4125                           ;./I2C.h: 29:     i2c_espera();
  4126  007D  120A  118A  20A6  120A  118A  	fcall	_i2c_espera
  4127  0082                     l1611:	
  4128                           
  4129                           ;./I2C.h: 30:     SSPCON2bits.SEN = 1;
  4130  0082  1683               	bsf	3,5	;RP0=1, select bank1
  4131  0083  1303               	bcf	3,6	;RP1=0, select bank1
  4132  0084  1411               	bsf	17,0	;volatile
  4133  0085                     l56:	
  4134  0085  0008               	return
  4135  0086                     __end_of_i2c_inicia_com:	
  4136                           
  4137                           	psect	text23
  4138  008F                     __ptext23:	
  4139 ;; *************** function _i2c_envia_dato *****************
  4140 ;; Defined at:
  4141 ;;		line 57 in file "./I2C.h"
  4142 ;; Parameters:    Size  Location     Type
  4143 ;;  dato            1    wreg     unsigned char 
  4144 ;; Auto vars:     Size  Location     Type
  4145 ;;  dato            1    0[COMMON] unsigned char 
  4146 ;; Return value:  Size  Location     Type
  4147 ;;                  1    wreg      unsigned char 
  4148 ;; Registers used:
  4149 ;;		wreg, status,2, status,0, pclath, cstack
  4150 ;; Tracked objects:
  4151 ;;		On entry : 0/0
  4152 ;;		On exit  : 0/0
  4153 ;;		Unchanged: 0/0
  4154 ;; Data sizes:     COMMON   BANK0   BANK1   BANK3   BANK2
  4155 ;;      Params:         0       0       0       0       0
  4156 ;;      Locals:         1       0       0       0       0
  4157 ;;      Temps:          0       0       0       0       0
  4158 ;;      Totals:         1       0       0       0       0
  4159 ;;Total ram usage:        1 bytes
  4160 ;; Hardware stack levels used:    1
  4161 ;; Hardware stack levels required when called:    1
  4162 ;; This function calls:
  4163 ;;		_i2c_espera
  4164 ;; This function is called by:
  4165 ;;		_escribe_rtc
  4166 ;;		_leer_rtc
  4167 ;; This function uses a non-reentrant model
  4168 ;;
  4169                           
  4170                           
  4171                           ;psect for function _i2c_envia_dato
  4172  008F                     _i2c_envia_dato:	
  4173                           
  4174                           ;incstack = 0
  4175                           ; Regs used in _i2c_envia_dato: [wreg+status,2+status,0+pclath+cstack]
  4176                           ;i2c_envia_dato@dato stored from wreg
  4177  008F  00F0               	movwf	i2c_envia_dato@dato
  4178  0090                     l1617:	
  4179                           
  4180                           ;./I2C.h: 58:     i2c_espera();
  4181  0090  120A  118A  20A6  120A  118A  	fcall	_i2c_espera
  4182  0095                     l1619:	
  4183                           
  4184                           ;./I2C.h: 59:     SSPBUF = dato;
  4185  0095  0870               	movf	i2c_envia_dato@dato,w
  4186  0096  1283               	bcf	3,5	;RP0=0, select bank0
  4187  0097  1303               	bcf	3,6	;RP1=0, select bank0
  4188  0098  0093               	movwf	19	;volatile
  4189  0099                     l1621:	
  4190  0099                     l65:	
  4191                           ;./I2C.h: 60:     return ACKSTAT;;	Return value of _i2c_envia_dato is never used
  4192                           
  4193  0099  0008               	return
  4194  009A                     __end_of_i2c_envia_dato:	
  4195                           
  4196                           	psect	text24
  4197  0074                     __ptext24:	
  4198 ;; *************** function _i2c_detener *****************
  4199 ;; Defined at:
  4200 ;;		line 46 in file "./I2C.h"
  4201 ;; Parameters:    Size  Location     Type
  4202 ;;		None
  4203 ;; Auto vars:     Size  Location     Type
  4204 ;;		None
  4205 ;; Return value:  Size  Location     Type
  4206 ;;                  1    wreg      void 
  4207 ;; Registers used:
  4208 ;;		wreg, status,2, status,0, pclath, cstack
  4209 ;; Tracked objects:
  4210 ;;		On entry : 0/0
  4211 ;;		On exit  : 0/0
  4212 ;;		Unchanged: 0/0
  4213 ;; Data sizes:     COMMON   BANK0   BANK1   BANK3   BANK2
  4214 ;;      Params:         0       0       0       0       0
  4215 ;;      Locals:         0       0       0       0       0
  4216 ;;      Temps:          0       0       0       0       0
  4217 ;;      Totals:         0       0       0       0       0
  4218 ;;Total ram usage:        0 bytes
  4219 ;; Hardware stack levels used:    1
  4220 ;; Hardware stack levels required when called:    1
  4221 ;; This function calls:
  4222 ;;		_i2c_espera
  4223 ;; This function is called by:
  4224 ;;		_escribe_rtc
  4225 ;;		_leer_rtc
  4226 ;; This function uses a non-reentrant model
  4227 ;;
  4228                           
  4229                           
  4230                           ;psect for function _i2c_detener
  4231  0074                     _i2c_detener:	
  4232  0074                     l1613:	
  4233                           ;incstack = 0
  4234                           ; Regs used in _i2c_detener: [wreg+status,2+status,0+pclath+cstack]
  4235                           
  4236                           
  4237                           ;./I2C.h: 47:     i2c_espera();
  4238  0074  120A  118A  20A6  120A  118A  	fcall	_i2c_espera
  4239  0079                     l1615:	
  4240                           
  4241                           ;./I2C.h: 48:     SSPCON2bits.PEN = 1;
  4242  0079  1683               	bsf	3,5	;RP0=1, select bank1
  4243  007A  1303               	bcf	3,6	;RP1=0, select bank1
  4244  007B  1511               	bsf	17,2	;volatile
  4245  007C                     l62:	
  4246  007C  0008               	return
  4247  007D                     __end_of_i2c_detener:	
  4248                           
  4249                           	psect	text25
  4250  00A6                     __ptext25:	
  4251 ;; *************** function _i2c_espera *****************
  4252 ;; Defined at:
  4253 ;;		line 20 in file "./I2C.h"
  4254 ;; Parameters:    Size  Location     Type
  4255 ;;		None
  4256 ;; Auto vars:     Size  Location     Type
  4257 ;;		None
  4258 ;; Return value:  Size  Location     Type
  4259 ;;                  1    wreg      void 
  4260 ;; Registers used:
  4261 ;;		wreg, status,2
  4262 ;; Tracked objects:
  4263 ;;		On entry : 0/0
  4264 ;;		On exit  : 0/0
  4265 ;;		Unchanged: 0/0
  4266 ;; Data sizes:     COMMON   BANK0   BANK1   BANK3   BANK2
  4267 ;;      Params:         0       0       0       0       0
  4268 ;;      Locals:         0       0       0       0       0
  4269 ;;      Temps:          0       0       0       0       0
  4270 ;;      Totals:         0       0       0       0       0
  4271 ;;Total ram usage:        0 bytes
  4272 ;; Hardware stack levels used:    1
  4273 ;; This function calls:
  4274 ;;		Nothing
  4275 ;; This function is called by:
  4276 ;;		_i2c_inicia_com
  4277 ;;		_i2c_reinicia_com
  4278 ;;		_i2c_detener
  4279 ;;		_i2c_envia_dato
  4280 ;;		_i2c_recibe_dato
  4281 ;; This function uses a non-reentrant model
  4282 ;;
  4283                           
  4284                           
  4285                           ;psect for function _i2c_espera
  4286  00A6                     _i2c_espera:	
  4287  00A6                     l1603:	
  4288                           ;incstack = 0
  4289                           ; Regs used in _i2c_espera: [wreg+status,2]
  4290                           
  4291  00A6                     l1605:	
  4292                           ;./I2C.h: 21:     while ((SSPCON2 & 0b00011111) || (SSPSTAT & 0b00000100));
  4293                           
  4294  00A6  1683               	bsf	3,5	;RP0=1, select bank1
  4295  00A7  1303               	bcf	3,6	;RP1=0, select bank1
  4296  00A8  0811               	movf	17,w	;volatile
  4297  00A9  391F               	andlw	31
  4298  00AA  1D03               	btfss	3,2
  4299  00AB  28AD               	goto	u861
  4300  00AC  28AE               	goto	u860
  4301  00AD                     u861:	
  4302  00AD  28A6               	goto	l1605
  4303  00AE                     u860:	
  4304  00AE                     l1607:	
  4305  00AE  1914               	btfsc	20,2	;volatile
  4306  00AF  28B1               	goto	u871
  4307  00B0  28B2               	goto	u870
  4308  00B1                     u871:	
  4309  00B1  28A6               	goto	l1605
  4310  00B2                     u870:	
  4311  00B2                     l53:	
  4312  00B2  0008               	return
  4313  00B3                     __end_of_i2c_espera:	
  4314                           
  4315                           	psect	text26
  4316  021B                     __ptext26:	
  4317 ;; *************** function _antiRebote *****************
  4318 ;; Defined at:
  4319 ;;		line 47 in file "main.c"
  4320 ;; Parameters:    Size  Location     Type
  4321 ;;  pin             2    0[COMMON] unsigned int 
  4322 ;; Auto vars:     Size  Location     Type
  4323 ;;		None
  4324 ;; Return value:  Size  Location     Type
  4325 ;;                  1    wreg      void 
  4326 ;; Registers used:
  4327 ;;		wreg, fsr0l, fsr0h, status,2, status,0
  4328 ;; Tracked objects:
  4329 ;;		On entry : 0/0
  4330 ;;		On exit  : 0/0
  4331 ;;		Unchanged: 0/0
  4332 ;; Data sizes:     COMMON   BANK0   BANK1   BANK3   BANK2
  4333 ;;      Params:         2       0       0       0       0
  4334 ;;      Locals:         0       0       0       0       0
  4335 ;;      Temps:          2       0       0       0       0
  4336 ;;      Totals:         4       0       0       0       0
  4337 ;;Total ram usage:        4 bytes
  4338 ;; Hardware stack levels used:    1
  4339 ;; This function calls:
  4340 ;;		Nothing
  4341 ;; This function is called by:
  4342 ;;		_dameTemperatura
  4343 ;;		_controlBotones
  4344 ;;		_main
  4345 ;; This function uses a non-reentrant model
  4346 ;;
  4347                           
  4348                           
  4349                           ;psect for function _antiRebote
  4350  021B                     _antiRebote:	
  4351  021B                     l1675:	
  4352                           ;incstack = 0
  4353                           ; Regs used in _antiRebote: [wreg-fsr0h+status,2+status,0]
  4354                           
  4355                           
  4356                           ;main.c: 49:     switch (pin) {
  4357  021B  2A46               	goto	l1685
  4358  021C                     l112:	
  4359  021C  1283               	bcf	3,5	;RP0=0, select bank0
  4360  021D  1303               	bcf	3,6	;RP1=0, select bank0
  4361  021E  1C06               	btfss	6,0	;volatile
  4362  021F  2A21               	goto	u911
  4363  0220  2A22               	goto	u910
  4364  0221                     u911:	
  4365  0221  2A1C               	goto	l112
  4366  0222                     u910:	
  4367  0222                     l115:	
  4368  0222  1806               	btfsc	6,0	;volatile
  4369  0223  2A25               	goto	u921
  4370  0224  2A26               	goto	u920
  4371  0225                     u921:	
  4372  0225  2A22               	goto	l115
  4373  0226                     u920:	
  4374  0226                     l1677:	
  4375                           
  4376                           ;main.c: 53:             _delay((unsigned long)((100)*(4000000/4000.0)));
  4377  0226  3082               	movlw	130
  4378  0227  00F3               	movwf	??_antiRebote+1
  4379  0228  30DD               	movlw	221
  4380  0229  00F2               	movwf	??_antiRebote
  4381  022A                     u1827:	
  4382  022A  0BF2               	decfsz	??_antiRebote,f
  4383  022B  2A2A               	goto	u1827
  4384  022C  0BF3               	decfsz	??_antiRebote+1,f
  4385  022D  2A2A               	goto	u1827
  4386  022E  2A2F               	nop2
  4387                           
  4388                           ;main.c: 54:             break;
  4389  022F  2A56               	goto	l134
  4390  0230                     l120:	
  4391  0230  1283               	bcf	3,5	;RP0=0, select bank0
  4392  0231  1303               	bcf	3,6	;RP1=0, select bank0
  4393  0232  1C86               	btfss	6,1	;volatile
  4394  0233  2A35               	goto	u931
  4395  0234  2A36               	goto	u930
  4396  0235                     u931:	
  4397  0235  2A30               	goto	l120
  4398  0236                     u930:	
  4399  0236                     l123:	
  4400  0236  1886               	btfsc	6,1	;volatile
  4401  0237  2A39               	goto	u941
  4402  0238  2A3A               	goto	u940
  4403  0239                     u941:	
  4404  0239  2A36               	goto	l123
  4405  023A                     u940:	
  4406  023A  2A26               	goto	l1677
  4407  023B                     l127:	
  4408  023B  1283               	bcf	3,5	;RP0=0, select bank0
  4409  023C  1303               	bcf	3,6	;RP1=0, select bank0
  4410  023D  1D06               	btfss	6,2	;volatile
  4411  023E  2A40               	goto	u951
  4412  023F  2A41               	goto	u950
  4413  0240                     u951:	
  4414  0240  2A3B               	goto	l127
  4415  0241                     u950:	
  4416  0241                     l130:	
  4417  0241  1906               	btfsc	6,2	;volatile
  4418  0242  2A44               	goto	u961
  4419  0243  2A45               	goto	u960
  4420  0244                     u961:	
  4421  0244  2A41               	goto	l130
  4422  0245                     u960:	
  4423  0245  2A26               	goto	l1677
  4424  0246                     l1685:	
  4425                           
  4426                           ; Switch on 2 bytes has been partitioned into a top level switch of size 1, and 1 sub-sw
      +                          itches
  4427                           ; Switch size 1, requested type "simple"
  4428                           ; Number of cases is 1, Range of values is 0 to 0
  4429                           ; switch strategies available:
  4430                           ; Name         Instructions Cycles
  4431                           ; simple_byte            4     3 (average)
  4432                           ; direct_byte           11     8 (fixed)
  4433                           ; jumptable            260     6 (fixed)
  4434                           ;	Chosen strategy is simple_byte
  4435  0246  0871               	movf	antiRebote@pin+1,w
  4436  0247  3A00               	xorlw	0	; case 0
  4437  0248  1903               	skipnz
  4438  0249  2A4B               	goto	l2329
  4439  024A  2A56               	goto	l134
  4440  024B                     l2329:	
  4441                           
  4442                           ; Switch size 1, requested type "simple"
  4443                           ; Number of cases is 3, Range of values is 0 to 2
  4444                           ; switch strategies available:
  4445                           ; Name         Instructions Cycles
  4446                           ; simple_byte           10     6 (average)
  4447                           ; direct_byte           17     8 (fixed)
  4448                           ; jumptable            260     6 (fixed)
  4449                           ;	Chosen strategy is simple_byte
  4450  024B  0870               	movf	antiRebote@pin,w
  4451  024C  3A00               	xorlw	0	; case 0
  4452  024D  1903               	skipnz
  4453  024E  2A1C               	goto	l112
  4454  024F  3A01               	xorlw	1	; case 1
  4455  0250  1903               	skipnz
  4456  0251  2A30               	goto	l120
  4457  0252  3A03               	xorlw	3	; case 2
  4458  0253  1903               	skipnz
  4459  0254  2A3B               	goto	l127
  4460  0255  2A56               	goto	l134
  4461  0256                     l134:	
  4462  0256  0008               	return
  4463  0257                     __end_of_antiRebote:	
  4464  007E                     btemp	set	126	;btemp
  4465  007E                     wtemp0	set	126


Data Sizes:
    Strings     0
    Constant    0
    Data        12
    BSS         11
    Persistent  2
    Stack       0

Auto Spaces:
    Space          Size  Autos    Used
    COMMON           14     14      14
    BANK0            80     12      37
    BANK1            80      0       0
    BANK3            96      0       0
    BANK2            96      0       0

Pointer List with Targets:

    contDecHoraMostrar	PTR char  size(1) Largest target is 1
		 -> NULL(NULL[0]), contDecHoraAux(BANK0[1]), contDecHora(BANK0[1]), 

    contHoraMostrar	PTR char  size(1) Largest target is 1
		 -> NULL(NULL[0]), contHoraAux(BANK0[1]), contHora(BANK0[1]), 

    digitoActual	PTR char  size(1) Largest target is 1
		 -> NULL(NULL[0]), contHora(BANK0[1]), contDecMin(BANK0[1]), contMin(BANK0[1]), 


Critical Paths under _main in COMMON

    _dameTemperatura->___awmod
    _dameHoraActual->___awmod
    _leer_rtc->_i2c_recibe_dato
    _convertirDato->___bmul
    ___awmod->___awdiv
    _convertirFormato->___bmul
    _controlBotones->_setRtcHora
    _controlBotones->_setRtcMinutos
    _setRtcMinutos->_escribe_rtc
    _setRtcHora->_escribe_rtc
    _escribe_rtc->_i2c_envia_dato

Critical Paths under _main in BANK0

    _main->_dameTemperatura
    _dameTemperatura->___awmod
    _dameHoraActual->___awmod

Critical Paths under _main in BANK1

    None.

Critical Paths under _main in BANK3

    None.

Critical Paths under _main in BANK2

    None.

Call Graph Tables:

 ---------------------------------------------------------------------------------
 (Depth) Function   	        Calls       Base Space   Used Autos Params    Refs
 ---------------------------------------------------------------------------------
 (0) _main                                                 2     2      0    7423
                                             10 BANK0      2     2      0
                         _antiRebote
                     _controlBotones
                   _convertirFormato
                     _dameHoraActual
                    _dameTemperatura
                        _i2c_iniciar
                     _mostrarDigitos
                   _parpadearDigitos
                       _verificaAmPm
 ---------------------------------------------------------------------------------
 (1) _verificaAmPm                                         0     0      0       0
 ---------------------------------------------------------------------------------
 (1) _parpadearDigitos                                     3     3      0     112
                                              0 COMMON     3     3      0
 ---------------------------------------------------------------------------------
 (1) _mostrarDigitos                                       2     2      0       0
                                              0 COMMON     2     2      0
 ---------------------------------------------------------------------------------
 (1) _i2c_iniciar                                          0     0      0       0
 ---------------------------------------------------------------------------------
 (1) _dameTemperatura                                      8     8      0    2669
                                              2 BANK0      8     8      0
                            ___awdiv
                            ___awmod
                         _antiRebote
                           _leer_rtc
 ---------------------------------------------------------------------------------
 (1) _dameHoraActual                                       5     5      0    2479
                                              2 BANK0      5     5      0
                            ___awdiv
                            ___awmod
                      _convertirDato
                           _leer_rtc
 ---------------------------------------------------------------------------------
 (2) _leer_rtc                                             3     3      0      90
                                              2 COMMON     3     3      0
                        _i2c_detener
                     _i2c_envia_dato
                     _i2c_inicia_com
                    _i2c_recibe_dato
                   _i2c_reinicia_com
 ---------------------------------------------------------------------------------
 (3) _i2c_reinicia_com                                     0     0      0       0
                         _i2c_espera
 ---------------------------------------------------------------------------------
 (3) _i2c_recibe_dato                                      2     2      0      23
                                              0 COMMON     2     2      0
                         _i2c_espera
 ---------------------------------------------------------------------------------
 (2) _convertirDato                                        5     5      0     335
                                              4 COMMON     5     5      0
                             ___bmul
 ---------------------------------------------------------------------------------
 (2) ___awmod                                              7     3      4    1208
                                              9 COMMON     5     1      4
                                              0 BANK0      2     2      0
                            ___awdiv (ARG)
 ---------------------------------------------------------------------------------
 (2) ___awdiv                                              9     5      4     756
                                              0 COMMON     9     5      4
 ---------------------------------------------------------------------------------
 (1) _convertirFormato                                     3     3      0     267
                                              4 COMMON     3     3      0
                             ___bmul
 ---------------------------------------------------------------------------------
 (3) ___bmul                                               4     3      1     244
                                              0 COMMON     4     3      1
 ---------------------------------------------------------------------------------
 (1) _controlBotones                                       2     2      0    1418
                                              6 COMMON     2     2      0
                         _antiRebote
                         _setRtcHora
                      _setRtcMinutos
               _validaDecenasMinutos
                        _validaHoras
                      _validaMinutos
 ---------------------------------------------------------------------------------
 (2) _validaMinutos                                        1     1      0       0
                                              0 COMMON     1     1      0
 ---------------------------------------------------------------------------------
 (2) _validaHoras                                          1     1      0       0
                                              0 COMMON     1     1      0
 ---------------------------------------------------------------------------------
 (2) _validaDecenasMinutos                                 1     1      0       0
                                              0 COMMON     1     1      0
 ---------------------------------------------------------------------------------
 (2) _setRtcMinutos                                        3     3      0     470
                                              3 COMMON     3     3      0
                        _escribe_rtc
 ---------------------------------------------------------------------------------
 (2) _setRtcHora                                           3     3      0     470
                                              3 COMMON     3     3      0
                        _escribe_rtc
 ---------------------------------------------------------------------------------
 (3) _escribe_rtc                                          2     1      1     446
                                              1 COMMON     2     1      1
                        _i2c_detener
                     _i2c_envia_dato
                     _i2c_inicia_com
 ---------------------------------------------------------------------------------
 (3) _i2c_inicia_com                                       0     0      0       0
                         _i2c_espera
 ---------------------------------------------------------------------------------
 (3) _i2c_envia_dato                                       1     1      0      22
                                              0 COMMON     1     1      0
                         _i2c_espera
 ---------------------------------------------------------------------------------
 (3) _i2c_detener                                          0     0      0       0
                         _i2c_espera
 ---------------------------------------------------------------------------------
 (4) _i2c_espera                                           0     0      0       0
 ---------------------------------------------------------------------------------
 (2) _antiRebote                                           4     2      2     478
                                              0 COMMON     4     2      2
 ---------------------------------------------------------------------------------
 Estimated maximum stack depth 4
 ---------------------------------------------------------------------------------

 Call Graph Graphs:

 _main (ROOT)
   _antiRebote
   _controlBotones
     _antiRebote
     _setRtcHora
       _escribe_rtc
         _i2c_detener
           _i2c_espera
         _i2c_envia_dato
           _i2c_espera
         _i2c_inicia_com
           _i2c_espera
     _setRtcMinutos
       _escribe_rtc
         _i2c_detener
           _i2c_espera
         _i2c_envia_dato
           _i2c_espera
         _i2c_inicia_com
           _i2c_espera
     _validaDecenasMinutos
     _validaHoras
     _validaMinutos
   _convertirFormato
     ___bmul
   _dameHoraActual
     ___awdiv
     ___awmod
       ___awdiv (ARG)
     _convertirDato
       ___bmul
     _leer_rtc
       _i2c_detener
         _i2c_espera
       _i2c_envia_dato
         _i2c_espera
       _i2c_inicia_com
         _i2c_espera
       _i2c_recibe_dato
         _i2c_espera
       _i2c_reinicia_com
         _i2c_espera
   _dameTemperatura
     ___awdiv
     ___awmod
       ___awdiv (ARG)
     _antiRebote
     _leer_rtc
       _i2c_detener
         _i2c_espera
       _i2c_envia_dato
         _i2c_espera
       _i2c_inicia_com
         _i2c_espera
       _i2c_recibe_dato
         _i2c_espera
       _i2c_reinicia_com
         _i2c_espera
   _i2c_iniciar
   _mostrarDigitos
   _parpadearDigitos
   _verificaAmPm

 Address spaces:
Name               Size   Autos  Total    Cost      Usage
BANK3               60      0       0       9        0.0%
BITBANK3            60      0       0       8        0.0%
SFR3                 0      0       0       4        0.0%
BITSFR3              0      0       0       4        0.0%
BANK2               60      0       0      11        0.0%
BITBANK2            60      0       0      10        0.0%
SFR2                 0      0       0       5        0.0%
BITSFR2              0      0       0       5        0.0%
BANK1               50      0       0       7        0.0%
BITBANK1            50      0       0       6        0.0%
SFR1                 0      0       0       2        0.0%
BITSFR1              0      0       0       2        0.0%
BANK0               50      C      25       5       46.3%
BITBANK0            50      0       0       4        0.0%
SFR0                 0      0       0       1        0.0%
BITSFR0              0      0       0       1        0.0%
COMMON               E      E       E       1      100.0%
BITCOMMON            E      0       0       0        0.0%
CODE                 0      0       0       0        0.0%
DATA                 0      0      33      12        0.0%
ABS                  0      0      33       3        0.0%
NULL                 0      0       0       0        0.0%
STACK                0      0       0       2        0.0%
EEDATA             100      0       0       0        0.0%


Microchip Technology PIC Macro Assembler V2.10 build 88905656 
Symbol Table                                                                                   Fri Mar 06 09:44:01 2020

                            pc 0002                 ___bmul@product 0072                    __CFG_CP$OFF 0000  
                           l53 00B2                             l62 007C                             l71 0144  
                           l47 00C4                             l56 0085                             l65 0099  
                           l74 021A                             l59 008E                             l68 0162  
                           l77 01C3                   ___awdiv@sign 0076                             fsr 0004  
                          l120 0230                            l112 021C                            l130 0241  
                          l123 0236                            l115 0222                            l140 0126  
                          l134 0256                            l214 047B                            l222 01EA  
                          l127 023B                            l160 03F6                            l232 0522  
                          l146 0109                            l154 03F6                            l170 0670  
                          l226 01D6                            l243 0559                            l219 0316  
                          l244 055D                            l260 050E                            l228 01EE  
                          l173 073C                            l405 00EC                            l182 07E2  
                          l183 07B9                            l175 077D                            l257 05BC  
                          l266 0182                            l275 06AC                            l196 07E2  
                          l532 037D                            l269 01A2                            l277 06CC  
                          l545 02B1                            _RC3 003B                            _RC4 003C  
                 __CFG_CPD$OFF 0000                            u910 0222                            u911 0221  
                          u920 0226                            u921 0225                            u905 01A7  
                          u930 0236                            u931 0235                            u940 023A  
                          u860 00AE                            u941 0239                            u861 00AD  
                          u950 0241                            u870 00B2                            u951 0240  
                          u871 00B1                            u960 0245                            u880 00DE  
                          u961 0244                            u881 00DD                            u970 0114  
                          u890 00EB                            u971 0113                            u891 00EA  
                          u980 0123                            u981 0122                            u990 00F7  
                          u991 00F6                            fsr0 0004                            indf 0000  
                 ___awmod@sign 002D                   __CFG_FOSC$XT 0000         ??_validaDecenasMinutos 0070  
                 __CFG_LVP$OFF 0000              ?_i2c_reinicia_com 0070               ??_mostrarDigitos 0070  
                 ?_escribe_rtc 0071                           l2001 0476                           l2011 02DC  
                         l2003 02B2                           l2021 0309                           l2013 02DE  
                         l2005 02C1                           l2015 02F2                           l2007 02C9  
                         l2023 0313                           l2031 01DA                           l2041 050F  
                         l2017 02F4                           l2009 02CB                           l2033 01E1  
                         l2025 01C4                           l2201 06F1                           l2043 0524  
                         l2019 0307                           l2035 01E6                           l2027 01CA  
                         l2211 070A                           l2203 06F3                           l2061 053B  
                         l2053 052F                           l2045 0529                           l2125 0562  
                         l2133 047C                           l2037 01E7                           l2029 01D1  
                         l2213 0710                           l2205 06F8                           l2071 0548  
                         l2063 053C                           l2055 0530                           l2047 052A  
                         l2127 05B4                           l2039 01EC                           l2215 0712  
                         l2207 06FD                           l2151 0677                           l2321 056A  
                         l2081 055B                           l2073 054D                           l2065 0541  
                         l2057 0535                           l2049 052D                           l2217 0717  
                         l2209 0704                           l2161 0688                           l2153 067B  
                         l2145 0671                           l1603 00A6                           l1611 0082  
                         l2323 0772                           l2075 054E                           l2067 0542  
                         l2059 0536                           l2219 071D                           l2171 0690  
                         l2163 068C                           l2155 067C                           l2147 0675  
                         l1605 00A6                           l1613 0074                           l1621 0099  
                         l1701 00F7                           l2325 07AE                           l2077 0553  
                         l2069 0547                           l2181 06B5                           l2173 069B  
                         l2165 068D                           l2157 067D                           l2149 0676  
                         l1607 00AE                           l1615 0079                           l1703 00FE  
                         l1711 038D                           l2327 07D7                           l2079 0554  
                         l1631 014A                           l2191 06D4                           l2183 06BE  
                         l2175 06A1                           l2167 068E                           l2159 0682  
                         l2329 024B                           l1617 0090                           l1609 007D  
                         l1705 0106                           l1721 03A5                           l1713 038E  
                         l1801 0374                           l1633 0152                           l1625 0086  
                         l2193 06D8                           l2185 06C7                           l2177 06A6  
                         l2169 068F                           l1619 0095                           l1643 0128  
                         l1731 03BA                           l1723 03A9                           l1715 0395  
                         l1707 037E                           l1651 00E2                           l1803 0379  
                         l1811 025E                           l1635 0158                           l1627 008B  
                         l2195 06DD                           l2187 06C9                           l2179 06B0  
                         l1741 03D7                           l1733 03BF                           l1725 03AF  
                         l1717 039B                           l1709 0385                           l1901 074F  
                         l1653 00E4                           l1645 00D9                           l1821 0274  
                         l1813 0263                           l1637 015D                           l1629 0145  
                         l1661 0219                           l2189 06D0                           l2197 06E2  
                         l1751 03F3                           l1743 03E0                           l1735 03C7  
                         l1727 03B7                           l1719 03A4                           l1911 0764  
                         l1903 0754                           l1655 00EB                           l1647 00DA  
                         l1831 0290                           l1823 0277                           l1815 0265  
                         l1807 0257                           l1671 01C2                           l1639 0160  
                         l2199 06E9                           l1761 0198                           l1737 03CB  
                         l1921 0794                           l1905 0759                           l1649 00DE  
                         l1841 02AD                           l1833 0296                           l1825 027E  
                         l1817 0269                           l1809 025A                           l1665 01A4  
                         l1675 021B                           l1755 0163                           l1747 03E5  
                         l1739 03D2                           l1691 010A                           l1931 07BD  
                         l1923 079A                           l1907 075E                           l1915 076A  
                         l1771 0323                           l1763 0317                           l1835 029D  
                         l1827 0282                           l1819 026E                           l1667 01A4  
                         l1659 01F0                           l1851 00C2                           l1677 0226  
                         l1685 0246                           l1757 0178                           l1749 03EA  
                         l1693 0114                           l1933 07C6                           l1925 07A0  
                         l1917 0781                           l1909 075F                           l1781 0338  
                         l1773 0327                           l1765 0318                           l1829 0286  
                         l1837 02A3                           l1669 01B1                           l1861 05E0  
                         l1853 05BD                           l1845 00B3                           l1759 0183  
                         l1695 011B                           l1943 07CF                           l1919 078A  
                         l1791 035B                           l1783 033B                           l1775 032C  
                         l1767 031C                           l1839 02A8                           l1871 0631  
                         l1863 05E8                           l1855 05C6                           l1847 00B7  
                         l1697 0123                           l1929 07A6                           l1793 0361  
                         l1785 0342                           l1777 0330                           l1769 0321  
                         l1881 0651                           l1873 0637                           l1865 05EC  
                         l1857 05CE                           l1849 00BF                           l1961 0404  
                         l1699 00ED                           l1891 0726                           l1795 0362  
                         l1787 0346                           l1779 0332                           l1883 0653  
                         l1875 0639                           l1867 05F7                           l1859 05DB  
                         l1971 0420                           l1963 0409                           l1893 072F  
                         l1797 0369                           l1789 034A                           l1885 065E  
                         l1877 0644                           l1869 060D                           l1981 0440  
                         l1973 0426                           l1965 040E                           l1957 03F7  
                         l1895 0737                           l1799 036F                           l1879 064B  
                         l1887 0666                           l1991 045F                           l1983 0446  
                         l1975 042B                           l1959 03FC                           l1897 0740  
                         l1889 066C                           l1993 0465                           l1985 044B  
                         l1969 0418                           l1899 0748                           l1995 046A  
                         l1979 0435                           l1989 0455                           l1999 0474  
                         u1000 0106                           u1001 0105                           u1010 0385  
                         u1011 0384                           u1100 03E0                           u1020 038D  
                         u1101 03DF                           u1021 038C                           u1110 03EA  
                         u1030 039B                           u1111 03E9                           u1031 039A  
                         u1120 03F3                           u1040 03A4                           u1121 03F2  
                         u1041 03A3                           u1050 03AF                           u1210 035B  
                         u1051 03AE                           u1211 035A                           u1060 03B7  
                         u1300 0290                           u1061 03B6                           u1205 034B  
                         u1301 028F                           u1070 03BF                           u1230 036F  
                         u1150 031C                           u1135 0169                           u1071 03BE  
                         u1231 036E                           u1215 0357                           u1151 031B  
                         u1080 03C7                           u1400 0781                           u1240 0374  
                         u1160 0327                           u1320 02A3                           u1145 0189  
                         u1081 03C6                           u1401 0780                           u1241 0373  
                         u1225 0363                           u1161 0326                           u1321 02A2  
                         u1305 028C                           u1090 03D7                           u1410 07BD  
                         u1170 0338                           u1330 02A8                           u1250 025E  
                         u1091 03D6                           u1411 07BC                           u1171 0337  
                         u1331 02A7                           u1315 0297                           u1251 025D  
                         u1260 0269                           u1340 05DB                           u1500 047B  
                         u1420 0409                           u1261 0268                           u1341 05DA  
                         u1501 047A                           u1421 0408                           u1190 034A  
                         u1270 0274                           u1350 05E8                           u1510 02C1  
                         u1430 040E                           u1191 0349                           u1271 0273  
                         u1351 05E7                           u1511 02C0                           u1431 040D  
                         u1360 064B                           u1440 0426                           u1520 01CA  
                         u1600 06B0                           u1185 033C                           u1361 064A  
                         u1345 05D7                           u1441 0425                           u1521 01C9  
                         u1601 06AF                           u1290 0286                           u1370 066C  
                         u1450 042B                           u1530 01D1                           u1610 06B5  
                         u1291 0285                           u1371 066B                           u1515 02BD  
                         u1451 042A                           u1531 01D0                           u1611 06B4  
                         u1380 072F                           u1460 0446                           u1540 01D6  
                         u1700 0710                           u1620 06C7                           u1381 072E  
                         u1285 0278                           u1461 0445                           u1541 01D5  
                         u1701 070F                           u1621 06C6                           u1390 0740  
                         u1470 044B                           u1550 01DA                           u1630 06D0  
                         u1391 073F                           u1471 044A                           u1551 01D9  
                         u1631 06CF                           u1480 0465                           u1560 01E1  
                         u1640 06D4                           u1481 0464                           u1561 01E0  
                         u1641 06D3                           u1490 046A                           u1570 01E6  
                         u1650 06D8                           u1491 0469                           u1571 01E5  
                         u1651 06D7                           u1660 06DD                           u1580 06A1  
                         u1661 06DC                           u1581 06A0                           u1717 0696  
                         u1670 06E9                           u1590 06A6                           u1807 063F  
                         u1727 0414                           u1671 06E8                           u1591 06A5  
                         u1680 0704                           u1817 0659                           u1737 0431  
                         u1681 0703                           u1690 070A                           u1827 022A  
                         u1747 0451                           u1691 0709                           u1757 0470  
                         u1767 02CF                           u1777 02E2                           u1787 02F8  
                         u1797 030D                           _AmPm 003A             ??_i2c_reinicia_com 0070  
                 __CFG_WRT$OFF 0000                  ??_i2c_detener 0070              ?_parpadearDigitos 0070  
                         _main 0671                           btemp 007E                  ??_i2c_iniciar 0070  
                         start 0000             ??_parpadearDigitos 0070              ___bmul@multiplier 0073  
 parpadearDigitos@repeticiones 0072                 _i2c_envia_dato 008F                 _i2c_inicia_com 007D  
                        ?_main 0070                  _convertirDato 01A3                __end_of___awdiv 037E  
                __CFG_WDTE$OFF 0000                __end_of___awmod 02B2              convertirDato@dato 0077  
              ___awdiv@divisor 0070                ___awdiv@counter 0075                          _PORTA 0005  
                        _PORTB 0006                          _PORTC 0007                          _PORTD 0008  
                        _TRISA 0085                          _TRISB 0086                          _TRISD 0088  
            setRtcHora@horaRtc 0075                 __CFG_BOREN$OFF 0000                          pclath 000A  
      setRtcMinutos@minutosRtc 0075                          status 0003                          wtemp0 007E  
                   _i2c_espera 00A6               ??_dameHoraActual 002E               _contadorBotonSet 003C  
              __initialization 07E3            __end_of_i2c_detener 007D         __end_of_i2c_envia_dato 009A  
                 __end_of_main 0726         __end_of_i2c_inicia_com 0086            __end_of_i2c_iniciar 00C5  
               ?_convertirDato 0070                         ??_main 0036          __end_of_setRtcMinutos 01A3  
           i2c_envia_dato@dato 0070               ___awdiv@dividend 0072             convertirDato@datoR 0078  
                 ?_validaHoras 0070                         _SSPADD 0093                         _SSPCON 0014  
                       _SSPBUF 0013                 _controlBotones 0726                 __CFG_PWRTE$OFF 0000  
                       ___bmul 00D8                ?_i2c_envia_dato 0070                      ??___awdiv 0074  
                    ??___awmod 007D              ?_convertirFormato 0070               __end_of_leer_rtc 021B  
              ?_i2c_inicia_com 0070          __end_of_validaMinutos 0127             ??_convertirFormato 0074  
             ___awdiv@quotient 0077                ___awmod@divisor 0079                ___awmod@counter 002C  
              _i2c_recibe_dato 0145           escribe_rtc@direccion 0072         __end_of_controlBotones 07E3  
      __end_of__initialization 07FC           __size_of_escribe_rtc 001E                    _i2c_detener 0074  
                  _i2c_iniciar 00B3                    ?_i2c_espera 0070            ___bmul@multiplicand 0070  
            _contadorBotonTemp 0038                   leer_rtc@dato 0074                 __pcstackCOMMON 0070  
                 __pidataBANK0 009A                ??_convertirDato 0074       __size_of_dameTemperatura 00B4  
                   __pbssBANK0 0038                ?_controlBotones 0070                     __pmaintext 0671  
    __size_of_i2c_reinicia_com 0009                        ?___bmul 0070        dameTemperatura@unidades 0033  
      __end_of_i2c_recibe_dato 0163                        _ACKSTAT 048E      __size_of_parpadearDigitos 0085  
                   _antiRebote 021B                     _contDecMin 0042  convertirFormato@numeroEvaluar 0076  
                 _digitoActual 003E            __size_of_i2c_espera 000D                        _SSPCON2 0091  
                      _SSPSTAT 0094  __size_of_validaDecenasMinutos 001D                      ?_leer_rtc 0070  
         __size_of_validaHoras 0079                __size_of___bmul 0015                        ___awdiv 0317  
                      ___awmod 0257                        __ptext1 01C4                        __ptext2 03F7  
                      __ptext3 02B2                        __ptext4 00B3                        __ptext5 05BD  
                      __ptext6 047C                        __ptext7 01EF                        __ptext8 0086  
                      __ptext9 0145                        _contMin 0041                        _formato 003B  
             ___awmod@dividend 007B              ??_dameTemperatura 002E                        _numeros 0020  
         end_of_initialization 07FC     dameTemperatura@temperatura 0035                     ??_leer_rtc 0072  
                   _setRtcHora 0163               ??_i2c_envia_dato 0070               ??_i2c_inicia_com 0070  
      __size_of_mostrarDigitos 0065               ?_i2c_recibe_dato 0070                    ?_antiRebote 0070  
                    _PORTBbits 0006                      _TRISCbits 0087      __size_of_convertirFormato 00AE  
                ?_verificaAmPm 0070                   ?_i2c_detener 0070                   ?_i2c_iniciar 0070  
       __size_of_setRtcMinutos 0020                   ??_i2c_espera 0070               _i2c_reinicia_com 0086  
               __end_of___bmul 00ED               _parpadearDigitos 03F7        __size_of_dameHoraActual 0093  
          start_initialization 07E3                 ??_verificaAmPm 0070               ??_controlBotones 0076  
           __end_of_i2c_espera 00B3                  ??_escribe_rtc 0072         __size_of_validaMinutos 001D  
                  ?_setRtcHora 0070            __size_of_antiRebote 003C                       ??___bmul 0071  
                   init_fetch0 00C5                    __pdataBANK0 0020              leer_rtc@direccion 0073  
        __end_of_convertirDato 01C4                  _setRtcMinutos 0183                      ___latbits 0002  
                __pcstackBANK0 002C         dameTemperatura@decenas 0034              __size_of_leer_rtc 002C  
                    __pnvBANK0 0043            __end_of_escribe_rtc 0145                 _mostrarDigitos 02B2  
                     ?___awdiv 0070                       ?___awmod 0079   __end_of_validaDecenasMinutos 010A  
              _dameTemperatura 05BD                  _validaMinutos 010A                 ?_setRtcMinutos 0070  
          __size_of_setRtcHora 0020               _convertirFormato 050F                  ??_validaHoras 0070  
                  _contDecHora 002B         __end_of_mostrarDigitos 0317                _contHoraMostrar 0043  
         __size_of_i2c_detener 0009                    _contHoraAux 003F           __size_of_i2c_iniciar 0012  
         __end_of_verificaAmPm 01EF                 _contDecHoraAux 0040                 ?_validaMinutos 0070  
                 ??_antiRebote 0072                     _ADCON1bits 009F                 _dameHoraActual 047C  
     __end_of_i2c_reinicia_com 008F                    _escribe_rtc 0127       __end_of_parpadearDigitos 047C  
              ?_mostrarDigitos 0070             __end_of_antiRebote 0257        __end_of_dameTemperatura 0671  
          __end_of_validaHoras 03F7               __size_of___awdiv 0067         __end_of_dameHoraActual 050F  
             __size_of___awmod 005B                ??_setRtcMinutos 0073    dameTemperatura@repeticiones 0031  
     __size_of_i2c_recibe_dato 001E                       __ptext10 01A3                       __ptext11 0257  
                     __ptext20 0163                       __ptext12 0317                       __ptext21 0127  
                     __ptext13 050F                       __ptext22 007D                       __ptext14 00D8  
                     __ptext23 008F                       __ptext15 0726                       __ptext24 0074  
                     __ptext16 010A                       __ptext25 00A6                       __ptext17 037E  
                     __ptext26 021B                       __ptext18 00ED                       __ptext19 0183  
                     _contHora 002A                  antiRebote@pin 0070           _validaDecenasMinutos 00ED  
                     _leer_rtc 01EF                   ??_setRtcHora 0073          dameHoraActual@auxHora 0032  
                __size_of_main 00B5                ??_validaMinutos 0070                ?_dameHoraActual 0070  
      __size_of_i2c_envia_dato 000B        __size_of_i2c_inicia_com 0009             _contDecHoraMostrar 0044  
     i2c_recibe_dato@datoleido 0071             __end_of_setRtcHora 0183                       init_ram0 00C9  
        ?_validaDecenasMinutos 0070                escribe_rtc@dato 0071                    _validaHoras 037E  
        __size_of_verificaAmPm 002B           dameHoraActual@auxMin 0031               ?_dameTemperatura 0070  
                 _numeroActual 003D       __end_of_convertirFormato 05BD                    _SSPCON2bits 0091  
                 _verificaAmPm 01C4              ??_i2c_recibe_dato 0070         __size_of_convertirDato 0021  
      __size_of_controlBotones 00BD  
